---
triple:          'x86_64-apple-darwin'
binary-path:     test_clothing
relocations:
  - { offsetInCU: 0x2F31, offset: 0x2F31, size: 0x8, addend: 0x0, symName: __ZNSt3__124__put_character_sequenceB7v160006IcNS_11char_traitsIcEEEERNS_13basic_ostreamIT_T0_EES7_PKS4_m, symObjAddr: 0x7E0, symBinAddr: 0x100002430, symSize: 0x1F0 }
  - { offsetInCU: 0x5CEA, offset: 0x5CEA, size: 0x8, addend: 0x0, symName: __ZNSt3__1lsB7v160006INS_11char_traitsIcEEEERNS_13basic_ostreamIcT_EES6_PKc, symObjAddr: 0x3E0, symBinAddr: 0x100002030, symSize: 0x40 }
  - { offsetInCU: 0x6330, offset: 0x6330, size: 0x8, addend: 0x0, symName: __ZNSt3__1neB7v160006ERKNS_21__tree_const_iteratorINS_12basic_stringIcNS_11char_traitsIcEENS_9allocatorIcEEEEPNS_11__tree_nodeIS6_PvEElEESD_, symObjAddr: 0x480, symBinAddr: 0x1000020D0, symSize: 0x30 }
  - { offsetInCU: 0x636D, offset: 0x636D, size: 0x8, addend: 0x0, symName: __ZNSt3__1lsB7v160006IcNS_11char_traitsIcEENS_9allocatorIcEEEERNS_13basic_ostreamIT_T0_EES9_RKNS_12basic_stringIS6_S7_T1_EE, symObjAddr: 0x4D0, symBinAddr: 0x100002120, symSize: 0x50 }
  - { offsetInCU: 0x63C5, offset: 0x63C5, size: 0x8, addend: 0x0, symName: __ZNSt3__14endlB7v160006IcNS_11char_traitsIcEEEERNS_13basic_ostreamIT_T0_EES7_, symObjAddr: 0x590, symBinAddr: 0x1000021E0, symSize: 0x50 }
  - { offsetInCU: 0x6415, offset: 0x6415, size: 0x8, addend: 0x0, symName: __ZNSt3__119__debug_db_insert_cB7v160006INS_12basic_stringIcNS_11char_traitsIcEENS_9allocatorIcEEEEEEvPT_, symObjAddr: 0x710, symBinAddr: 0x100002360, symSize: 0x10 }
  - { offsetInCU: 0x6446, offset: 0x6446, size: 0x8, addend: 0x0, symName: __ZNSt3__118__constexpr_strlenB7v160006EPKc, symObjAddr: 0x7B0, symBinAddr: 0x100002400, symSize: 0x20 }
  - { offsetInCU: 0x6472, offset: 0x6472, size: 0x8, addend: 0x0, symName: __ZNSt3__116__pad_and_outputB7v160006IcNS_11char_traitsIcEEEENS_19ostreambuf_iteratorIT_T0_EES6_PKS4_S8_S8_RNS_8ios_baseES4_, symObjAddr: 0x9F0, symBinAddr: 0x100002640, symSize: 0x220 }
  - { offsetInCU: 0x6542, offset: 0x6542, size: 0x8, addend: 0x0, symName: __ZNSt3__112__to_addressB7v160006IKcEEPT_S3_, symObjAddr: 0xE50, symBinAddr: 0x100002AA0, symSize: 0x10 }
  - { offsetInCU: 0x65AA, offset: 0x65AA, size: 0x8, addend: 0x0, symName: __ZNSt3__19use_facetB7v160006INS_5ctypeIcEEEERKT_RKNS_6localeE, symObjAddr: 0x10B0, symBinAddr: 0x100002D00, symSize: 0x30 }
  - { offsetInCU: 0x6B06, offset: 0x6B06, size: 0x8, addend: 0x0, symName: __ZNSt3__119__libcpp_deallocateB7v160006EPvmm, symObjAddr: 0x1370, symBinAddr: 0x100002FC0, symSize: 0x30 }
  - { offsetInCU: 0x6B4E, offset: 0x6B4E, size: 0x8, addend: 0x0, symName: __ZNSt3__127__do_deallocate_handle_sizeB7v160006IJEEEvPvmDpT_, symObjAddr: 0x13A0, symBinAddr: 0x100002FF0, symSize: 0x20 }
  - { offsetInCU: 0x6B8C, offset: 0x6B8C, size: 0x8, addend: 0x0, symName: __ZNSt3__124__libcpp_operator_deleteB7v160006IJPvEEEvDpT_, symObjAddr: 0x13C0, symBinAddr: 0x100003010, symSize: 0x20 }
  - { offsetInCU: 0x6BF4, offset: 0x6BF4, size: 0x8, addend: 0x0, symName: __ZNSt3__1eqB7v160006ERKNS_21__tree_const_iteratorINS_12basic_stringIcNS_11char_traitsIcEENS_9allocatorIcEEEEPNS_11__tree_nodeIS6_PvEElEESD_, symObjAddr: 0x15C0, symBinAddr: 0x100003210, symSize: 0x30 }
  - { offsetInCU: 0x6C31, offset: 0x6C31, size: 0x8, addend: 0x0, symName: __ZNSt3__116__tree_next_iterB7v160006IPNS_15__tree_end_nodeIPNS_16__tree_node_baseIPvEEEES5_EET_T0_, symObjAddr: 0x15F0, symBinAddr: 0x100003240, symSize: 0x90 }
  - { offsetInCU: 0x6C6F, offset: 0x6C6F, size: 0x8, addend: 0x0, symName: __ZNSt3__110__tree_minB7v160006IPNS_16__tree_node_baseIPvEEEET_S5_, symObjAddr: 0x1680, symBinAddr: 0x1000032D0, symSize: 0x30 }
  - { offsetInCU: 0x6CA4, offset: 0x6CA4, size: 0x8, addend: 0x0, symName: __ZNSt3__120__tree_is_left_childB7v160006IPNS_16__tree_node_baseIPvEEEEbT_, symObjAddr: 0x16B0, symBinAddr: 0x100003300, symSize: 0x30 }
  - { offsetInCU: 0x9456, offset: 0x9456, size: 0x8, addend: 0x0, symName: _main, symObjAddr: 0x0, symBinAddr: 0x100001C50, symSize: 0x3B0 }
  - { offsetInCU: 0x94CE, offset: 0x94CE, size: 0x8, addend: 0x0, symName: __ZNSt3__112basic_stringIcNS_11char_traitsIcEENS_9allocatorIcEEEC1B7v160006IDnEEPKc, symObjAddr: 0x3B0, symBinAddr: 0x100002000, symSize: 0x30 }
  - { offsetInCU: 0x9555, offset: 0x9555, size: 0x8, addend: 0x0, symName: __ZNSt3__13setINS_12basic_stringIcNS_11char_traitsIcEENS_9allocatorIcEEEENS_4lessIS6_EENS4_IS6_EEE5beginB7v160006Ev, symObjAddr: 0x420, symBinAddr: 0x100002070, symSize: 0x30 }
  - { offsetInCU: 0x9579, offset: 0x9579, size: 0x8, addend: 0x0, symName: __ZNSt3__13setINS_12basic_stringIcNS_11char_traitsIcEENS_9allocatorIcEEEENS_4lessIS6_EENS4_IS6_EEE3endB7v160006Ev, symObjAddr: 0x450, symBinAddr: 0x1000020A0, symSize: 0x30 }
  - { offsetInCU: 0x959D, offset: 0x959D, size: 0x8, addend: 0x0, symName: __ZNKSt3__121__tree_const_iteratorINS_12basic_stringIcNS_11char_traitsIcEENS_9allocatorIcEEEEPNS_11__tree_nodeIS6_PvEElEdeB7v160006Ev, symObjAddr: 0x4B0, symBinAddr: 0x100002100, symSize: 0x20 }
  - { offsetInCU: 0x95C1, offset: 0x95C1, size: 0x8, addend: 0x0, symName: __ZNSt3__121__tree_const_iteratorINS_12basic_stringIcNS_11char_traitsIcEENS_9allocatorIcEEEEPNS_11__tree_nodeIS6_PvEElEppB7v160006Ev, symObjAddr: 0x520, symBinAddr: 0x100002170, symSize: 0x30 }
  - { offsetInCU: 0x95E5, offset: 0x95E5, size: 0x8, addend: 0x0, symName: __ZNSt3__13setINS_12basic_stringIcNS_11char_traitsIcEENS_9allocatorIcEEEENS_4lessIS6_EENS4_IS6_EEED1B7v160006Ev, symObjAddr: 0x550, symBinAddr: 0x1000021A0, symSize: 0x20 }
  - { offsetInCU: 0x960D, offset: 0x960D, size: 0x8, addend: 0x0, symName: __ZNSt3__113basic_ostreamIcNS_11char_traitsIcEEElsB7v160006EPFRS3_S4_E, symObjAddr: 0x570, symBinAddr: 0x1000021C0, symSize: 0x20 }
  - { offsetInCU: 0x988C, offset: 0x988C, size: 0x8, addend: 0x0, symName: __ZN8ClothingD1Ev, symObjAddr: 0x5E0, symBinAddr: 0x100002230, symSize: 0x20 }
  - { offsetInCU: 0x98B7, offset: 0x98B7, size: 0x8, addend: 0x0, symName: __ZN8ClothingD2Ev, symObjAddr: 0x600, symBinAddr: 0x100002250, symSize: 0x50 }
  - { offsetInCU: 0x98E1, offset: 0x98E1, size: 0x8, addend: 0x0, symName: __ZNSt3__112basic_stringIcNS_11char_traitsIcEENS_9allocatorIcEEEC2B7v160006IDnEEPKc, symObjAddr: 0x650, symBinAddr: 0x1000022A0, symSize: 0x60 }
  - { offsetInCU: 0x9922, offset: 0x9922, size: 0x8, addend: 0x0, symName: __ZNSt3__117__compressed_pairINS_12basic_stringIcNS_11char_traitsIcEENS_9allocatorIcEEE5__repES5_EC1B7v160006INS_18__default_init_tagESA_EEOT_OT0_, symObjAddr: 0x6B0, symBinAddr: 0x100002300, symSize: 0x30 }
  - { offsetInCU: 0x9979, offset: 0x9979, size: 0x8, addend: 0x0, symName: __ZNSt3__111char_traitsIcE6lengthEPKc, symObjAddr: 0x6E0, symBinAddr: 0x100002330, symSize: 0x30 }
  - { offsetInCU: 0x999B, offset: 0x999B, size: 0x8, addend: 0x0, symName: __ZNSt3__117__compressed_pairINS_12basic_stringIcNS_11char_traitsIcEENS_9allocatorIcEEE5__repES5_EC2B7v160006INS_18__default_init_tagESA_EEOT_OT0_, symObjAddr: 0x720, symBinAddr: 0x100002370, symSize: 0x30 }
  - { offsetInCU: 0x99F1, offset: 0x99F1, size: 0x8, addend: 0x0, symName: __ZNSt3__122__compressed_pair_elemINS_12basic_stringIcNS_11char_traitsIcEENS_9allocatorIcEEE5__repELi0ELb0EEC2B7v160006ENS_18__default_init_tagE, symObjAddr: 0x750, symBinAddr: 0x1000023A0, symSize: 0x10 }
  - { offsetInCU: 0x9A24, offset: 0x9A24, size: 0x8, addend: 0x0, symName: __ZNSt3__122__compressed_pair_elemINS_9allocatorIcEELi1ELb1EEC2B7v160006ENS_18__default_init_tagE, symObjAddr: 0x760, symBinAddr: 0x1000023B0, symSize: 0x20 }
  - { offsetInCU: 0x9A57, offset: 0x9A57, size: 0x8, addend: 0x0, symName: __ZNSt3__19allocatorIcEC2B7v160006Ev, symObjAddr: 0x780, symBinAddr: 0x1000023D0, symSize: 0x20 }
  - { offsetInCU: 0x9A7F, offset: 0x9A7F, size: 0x8, addend: 0x0, symName: __ZNSt3__116__non_trivial_ifILb1ENS_9allocatorIcEEEC2B7v160006Ev, symObjAddr: 0x7A0, symBinAddr: 0x1000023F0, symSize: 0x10 }
  - { offsetInCU: 0x9AC5, offset: 0x9AC5, size: 0x8, addend: 0x0, symName: __ZNKSt3__113basic_ostreamIcNS_11char_traitsIcEEE6sentrycvbB7v160006Ev, symObjAddr: 0x9D0, symBinAddr: 0x100002620, symSize: 0x20 }
  - { offsetInCU: 0x9AE9, offset: 0x9AE9, size: 0x8, addend: 0x0, symName: __ZNSt3__119ostreambuf_iteratorIcNS_11char_traitsIcEEEC1B7v160006ERNS_13basic_ostreamIcS2_EE, symObjAddr: 0xC10, symBinAddr: 0x100002860, symSize: 0x30 }
  - { offsetInCU: 0x9B20, offset: 0x9B20, size: 0x8, addend: 0x0, symName: __ZNKSt3__18ios_base5flagsB7v160006Ev, symObjAddr: 0xC40, symBinAddr: 0x100002890, symSize: 0x20 }
  - { offsetInCU: 0x9B47, offset: 0x9B47, size: 0x8, addend: 0x0, symName: __ZNKSt3__19basic_iosIcNS_11char_traitsIcEEE4fillB7v160006Ev, symObjAddr: 0xC60, symBinAddr: 0x1000028B0, symSize: 0x70 }
  - { offsetInCU: 0x9B6D, offset: 0x9B6D, size: 0x8, addend: 0x0, symName: __ZNKSt3__119ostreambuf_iteratorIcNS_11char_traitsIcEEE6failedB7v160006Ev, symObjAddr: 0xCD0, symBinAddr: 0x100002920, symSize: 0x20 }
  - { offsetInCU: 0x9B91, offset: 0x9B91, size: 0x8, addend: 0x0, symName: __ZNSt3__19basic_iosIcNS_11char_traitsIcEEE8setstateB7v160006Ej, symObjAddr: 0xCF0, symBinAddr: 0x100002940, symSize: 0x30 }
  - { offsetInCU: 0x9BC5, offset: 0x9BC5, size: 0x8, addend: 0x0, symName: __ZNKSt3__18ios_base5widthB7v160006Ev, symObjAddr: 0xD20, symBinAddr: 0x100002970, symSize: 0x20 }
  - { offsetInCU: 0x9BEB, offset: 0x9BEB, size: 0x8, addend: 0x0, symName: __ZNSt3__115basic_streambufIcNS_11char_traitsIcEEE5sputnB7v160006EPKcl, symObjAddr: 0xD40, symBinAddr: 0x100002990, symSize: 0x30 }
  - { offsetInCU: 0x9C2B, offset: 0x9C2B, size: 0x8, addend: 0x0, symName: __ZNSt3__112basic_stringIcNS_11char_traitsIcEENS_9allocatorIcEEEC1B7v160006Emc, symObjAddr: 0xD70, symBinAddr: 0x1000029C0, symSize: 0x30 }
  - { offsetInCU: 0x9C71, offset: 0x9C71, size: 0x8, addend: 0x0, symName: __ZNKSt3__112basic_stringIcNS_11char_traitsIcEENS_9allocatorIcEEE4dataB7v160006Ev, symObjAddr: 0xDA0, symBinAddr: 0x1000029F0, symSize: 0x30 }
  - { offsetInCU: 0x9C96, offset: 0x9C96, size: 0x8, addend: 0x0, symName: __ZNSt3__18ios_base5widthB7v160006El, symObjAddr: 0xDD0, symBinAddr: 0x100002A20, symSize: 0x30 }
  - { offsetInCU: 0x9CDA, offset: 0x9CDA, size: 0x8, addend: 0x0, symName: __ZNSt3__112basic_stringIcNS_11char_traitsIcEENS_9allocatorIcEEEC2B7v160006Emc, symObjAddr: 0xE00, symBinAddr: 0x100002A50, symSize: 0x50 }
  - { offsetInCU: 0x9D20, offset: 0x9D20, size: 0x8, addend: 0x0, symName: __ZNKSt3__112basic_stringIcNS_11char_traitsIcEENS_9allocatorIcEEE13__get_pointerB7v160006Ev, symObjAddr: 0xE60, symBinAddr: 0x100002AB0, symSize: 0x50 }
  - { offsetInCU: 0x9D44, offset: 0x9D44, size: 0x8, addend: 0x0, symName: __ZNKSt3__112basic_stringIcNS_11char_traitsIcEENS_9allocatorIcEEE9__is_longB7v160006Ev, symObjAddr: 0xEB0, symBinAddr: 0x100002B00, symSize: 0x30 }
  - { offsetInCU: 0x9D68, offset: 0x9D68, size: 0x8, addend: 0x0, symName: __ZNKSt3__112basic_stringIcNS_11char_traitsIcEENS_9allocatorIcEEE18__get_long_pointerB7v160006Ev, symObjAddr: 0xEE0, symBinAddr: 0x100002B30, symSize: 0x20 }
  - { offsetInCU: 0x9D8C, offset: 0x9D8C, size: 0x8, addend: 0x0, symName: __ZNKSt3__112basic_stringIcNS_11char_traitsIcEENS_9allocatorIcEEE19__get_short_pointerB7v160006Ev, symObjAddr: 0xF00, symBinAddr: 0x100002B50, symSize: 0x30 }
  - { offsetInCU: 0x9DB0, offset: 0x9DB0, size: 0x8, addend: 0x0, symName: __ZNKSt3__117__compressed_pairINS_12basic_stringIcNS_11char_traitsIcEENS_9allocatorIcEEE5__repES5_E5firstB7v160006Ev, symObjAddr: 0xF30, symBinAddr: 0x100002B80, symSize: 0x20 }
  - { offsetInCU: 0x9DD4, offset: 0x9DD4, size: 0x8, addend: 0x0, symName: __ZNKSt3__122__compressed_pair_elemINS_12basic_stringIcNS_11char_traitsIcEENS_9allocatorIcEEE5__repELi0ELb0EE5__getB7v160006Ev, symObjAddr: 0xF50, symBinAddr: 0x100002BA0, symSize: 0x10 }
  - { offsetInCU: 0x9DF9, offset: 0x9DF9, size: 0x8, addend: 0x0, symName: __ZNSt3__114pointer_traitsIPKcE10pointer_toB7v160006ERS1_, symObjAddr: 0xF60, symBinAddr: 0x100002BB0, symSize: 0x10 }
  - { offsetInCU: 0x9E1B, offset: 0x9E1B, size: 0x8, addend: 0x0, symName: __ZNSt3__119ostreambuf_iteratorIcNS_11char_traitsIcEEEC2B7v160006ERNS_13basic_ostreamIcS2_EE, symObjAddr: 0xF70, symBinAddr: 0x100002BC0, symSize: 0x50 }
  - { offsetInCU: 0x9E52, offset: 0x9E52, size: 0x8, addend: 0x0, symName: __ZNKSt3__19basic_iosIcNS_11char_traitsIcEEE5rdbufB7v160006Ev, symObjAddr: 0xFC0, symBinAddr: 0x100002C10, symSize: 0x20 }
  - { offsetInCU: 0x9E78, offset: 0x9E78, size: 0x8, addend: 0x0, symName: __ZNKSt3__18ios_base5rdbufB7v160006Ev, symObjAddr: 0xFE0, symBinAddr: 0x100002C30, symSize: 0x20 }
  - { offsetInCU: 0x9E9D, offset: 0x9E9D, size: 0x8, addend: 0x0, symName: __ZNSt3__111char_traitsIcE11eq_int_typeEii, symObjAddr: 0x1000, symBinAddr: 0x100002C50, symSize: 0x20 }
  - { offsetInCU: 0x9ECE, offset: 0x9ECE, size: 0x8, addend: 0x0, symName: __ZNSt3__111char_traitsIcE3eofEv, symObjAddr: 0x1020, symBinAddr: 0x100002C70, symSize: 0x10 }
  - { offsetInCU: 0x9EE2, offset: 0x9EE2, size: 0x8, addend: 0x0, symName: __ZNKSt3__19basic_iosIcNS_11char_traitsIcEEE5widenB7v160006Ec, symObjAddr: 0x1030, symBinAddr: 0x100002C80, symSize: 0x80 }
  - { offsetInCU: 0x9F4E, offset: 0x9F4E, size: 0x8, addend: 0x0, symName: __ZNKSt3__15ctypeIcE5widenB7v160006Ec, symObjAddr: 0x10E0, symBinAddr: 0x100002D30, symSize: 0x30 }
  - { offsetInCU: 0x9F82, offset: 0x9F82, size: 0x8, addend: 0x0, symName: __ZNSt3__18ios_base8setstateB7v160006Ej, symObjAddr: 0x1110, symBinAddr: 0x100002D60, symSize: 0x30 }
  - { offsetInCU: 0x9FB7, offset: 0x9FB7, size: 0x8, addend: 0x0, symName: __ZNSt3__13setINS_12basic_stringIcNS_11char_traitsIcEENS_9allocatorIcEEEENS_4lessIS6_EENS4_IS6_EEED2B7v160006Ev, symObjAddr: 0x1140, symBinAddr: 0x100002D90, symSize: 0x20 }
  - { offsetInCU: 0x9FE0, offset: 0x9FE0, size: 0x8, addend: 0x0, symName: __ZNSt3__16__treeINS_12basic_stringIcNS_11char_traitsIcEENS_9allocatorIcEEEENS_4lessIS6_EENS4_IS6_EEED1Ev, symObjAddr: 0x1160, symBinAddr: 0x100002DB0, symSize: 0x20 }
  - { offsetInCU: 0xA00B, offset: 0xA00B, size: 0x8, addend: 0x0, symName: __ZNSt3__16__treeINS_12basic_stringIcNS_11char_traitsIcEENS_9allocatorIcEEEENS_4lessIS6_EENS4_IS6_EEED2Ev, symObjAddr: 0x1180, symBinAddr: 0x100002DD0, symSize: 0x30 }
  - { offsetInCU: 0xA036, offset: 0xA036, size: 0x8, addend: 0x0, symName: __ZNSt3__16__treeINS_12basic_stringIcNS_11char_traitsIcEENS_9allocatorIcEEEENS_4lessIS6_EENS4_IS6_EEE7destroyEPNS_11__tree_nodeIS6_PvEE, symObjAddr: 0x11B0, symBinAddr: 0x100002E00, symSize: 0xB0 }
  - { offsetInCU: 0xA080, offset: 0xA080, size: 0x8, addend: 0x0, symName: __ZNKSt3__16__treeINS_12basic_stringIcNS_11char_traitsIcEENS_9allocatorIcEEEENS_4lessIS6_EENS4_IS6_EEE6__rootB7v160006Ev, symObjAddr: 0x1260, symBinAddr: 0x100002EB0, symSize: 0x20 }
  - { offsetInCU: 0xA0A4, offset: 0xA0A4, size: 0x8, addend: 0x0, symName: __ZNSt3__16__treeINS_12basic_stringIcNS_11char_traitsIcEENS_9allocatorIcEEEENS_4lessIS6_EENS4_IS6_EEE12__node_allocB7v160006Ev, symObjAddr: 0x1280, symBinAddr: 0x100002ED0, symSize: 0x20 }
  - { offsetInCU: 0xA0CE, offset: 0xA0CE, size: 0x8, addend: 0x0, symName: __ZNSt3__116allocator_traitsINS_9allocatorINS_11__tree_nodeINS_12basic_stringIcNS_11char_traitsIcEENS1_IcEEEEPvEEEEE7destroyB7v160006IS7_vvEEvRSA_PT_, symObjAddr: 0x12A0, symBinAddr: 0x100002EF0, symSize: 0x20 }
  - { offsetInCU: 0xA109, offset: 0xA109, size: 0x8, addend: 0x0, symName: __ZNSt3__122__tree_key_value_typesINS_12basic_stringIcNS_11char_traitsIcEENS_9allocatorIcEEEEE9__get_ptrB7v160006ERS6_, symObjAddr: 0x12C0, symBinAddr: 0x100002F10, symSize: 0x10 }
  - { offsetInCU: 0xA12D, offset: 0xA12D, size: 0x8, addend: 0x0, symName: __ZNSt3__116allocator_traitsINS_9allocatorINS_11__tree_nodeINS_12basic_stringIcNS_11char_traitsIcEENS1_IcEEEEPvEEEEE10deallocateB7v160006ERSA_PS9_m, symObjAddr: 0x12D0, symBinAddr: 0x100002F20, symSize: 0x30 }
  - { offsetInCU: 0xA16E, offset: 0xA16E, size: 0x8, addend: 0x0, symName: __ZNSt3__117__compressed_pairINS_15__tree_end_nodeIPNS_16__tree_node_baseIPvEEEENS_9allocatorINS_11__tree_nodeINS_12basic_stringIcNS_11char_traitsIcEENS7_IcEEEES3_EEEEE6secondB7v160006Ev, symObjAddr: 0x1300, symBinAddr: 0x100002F50, symSize: 0x20 }
  - { offsetInCU: 0xA192, offset: 0xA192, size: 0x8, addend: 0x0, symName: __ZNSt3__122__compressed_pair_elemINS_9allocatorINS_11__tree_nodeINS_12basic_stringIcNS_11char_traitsIcEENS1_IcEEEEPvEEEELi1ELb1EE5__getB7v160006Ev, symObjAddr: 0x1320, symBinAddr: 0x100002F70, symSize: 0x10 }
  - { offsetInCU: 0xA1B6, offset: 0xA1B6, size: 0x8, addend: 0x0, symName: __ZNSt3__19allocatorINS_11__tree_nodeINS_12basic_stringIcNS_11char_traitsIcEENS0_IcEEEEPvEEE10deallocateB7v160006EPS8_m, symObjAddr: 0x1330, symBinAddr: 0x100002F80, symSize: 0x40 }
  - { offsetInCU: 0xA1F6, offset: 0xA1F6, size: 0x8, addend: 0x0, symName: __ZNKSt3__16__treeINS_12basic_stringIcNS_11char_traitsIcEENS_9allocatorIcEEEENS_4lessIS6_EENS4_IS6_EEE10__end_nodeB7v160006Ev, symObjAddr: 0x13E0, symBinAddr: 0x100003030, symSize: 0x30 }
  - { offsetInCU: 0xA21B, offset: 0xA21B, size: 0x8, addend: 0x0, symName: __ZNSt3__114pointer_traitsIPNS_15__tree_end_nodeIPNS_16__tree_node_baseIPvEEEEE10pointer_toB7v160006ERS6_, symObjAddr: 0x1410, symBinAddr: 0x100003060, symSize: 0x10 }
  - { offsetInCU: 0xA23D, offset: 0xA23D, size: 0x8, addend: 0x0, symName: __ZNKSt3__117__compressed_pairINS_15__tree_end_nodeIPNS_16__tree_node_baseIPvEEEENS_9allocatorINS_11__tree_nodeINS_12basic_stringIcNS_11char_traitsIcEENS7_IcEEEES3_EEEEE5firstB7v160006Ev, symObjAddr: 0x1420, symBinAddr: 0x100003070, symSize: 0x20 }
  - { offsetInCU: 0xA261, offset: 0xA261, size: 0x8, addend: 0x0, symName: __ZNKSt3__122__compressed_pair_elemINS_15__tree_end_nodeIPNS_16__tree_node_baseIPvEEEELi0ELb0EE5__getB7v160006Ev, symObjAddr: 0x1440, symBinAddr: 0x100003090, symSize: 0x10 }
  - { offsetInCU: 0xA285, offset: 0xA285, size: 0x8, addend: 0x0, symName: __ZNSt3__16__treeINS_12basic_stringIcNS_11char_traitsIcEENS_9allocatorIcEEEENS_4lessIS6_EENS4_IS6_EEE5beginB7v160006Ev, symObjAddr: 0x1450, symBinAddr: 0x1000030A0, symSize: 0x30 }
  - { offsetInCU: 0xA2A9, offset: 0xA2A9, size: 0x8, addend: 0x0, symName: __ZNSt3__121__tree_const_iteratorINS_12basic_stringIcNS_11char_traitsIcEENS_9allocatorIcEEEEPNS_11__tree_nodeIS6_PvEElEC1B7v160006ENS_15__tree_iteratorIS6_SA_lEE, symObjAddr: 0x1480, symBinAddr: 0x1000030D0, symSize: 0x30 }
  - { offsetInCU: 0xA2E0, offset: 0xA2E0, size: 0x8, addend: 0x0, symName: __ZNSt3__16__treeINS_12basic_stringIcNS_11char_traitsIcEENS_9allocatorIcEEEENS_4lessIS6_EENS4_IS6_EEE12__begin_nodeB7v160006Ev, symObjAddr: 0x14B0, symBinAddr: 0x100003100, symSize: 0x10 }
  - { offsetInCU: 0xA304, offset: 0xA304, size: 0x8, addend: 0x0, symName: __ZNSt3__115__tree_iteratorINS_12basic_stringIcNS_11char_traitsIcEENS_9allocatorIcEEEEPNS_11__tree_nodeIS6_PvEElEC1B7v160006EPNS_15__tree_end_nodeIPNS_16__tree_node_baseIS8_EEEE, symObjAddr: 0x14C0, symBinAddr: 0x100003110, symSize: 0x30 }
  - { offsetInCU: 0xA33B, offset: 0xA33B, size: 0x8, addend: 0x0, symName: __ZNSt3__115__tree_iteratorINS_12basic_stringIcNS_11char_traitsIcEENS_9allocatorIcEEEEPNS_11__tree_nodeIS6_PvEElEC2B7v160006EPNS_15__tree_end_nodeIPNS_16__tree_node_baseIS8_EEEE, symObjAddr: 0x14F0, symBinAddr: 0x100003140, symSize: 0x20 }
  - { offsetInCU: 0xA372, offset: 0xA372, size: 0x8, addend: 0x0, symName: __ZNSt3__121__tree_const_iteratorINS_12basic_stringIcNS_11char_traitsIcEENS_9allocatorIcEEEEPNS_11__tree_nodeIS6_PvEElEC2B7v160006ENS_15__tree_iteratorIS6_SA_lEE, symObjAddr: 0x1510, symBinAddr: 0x100003160, symSize: 0x20 }
  - { offsetInCU: 0xA3A9, offset: 0xA3A9, size: 0x8, addend: 0x0, symName: __ZNSt3__16__treeINS_12basic_stringIcNS_11char_traitsIcEENS_9allocatorIcEEEENS_4lessIS6_EENS4_IS6_EEE3endB7v160006Ev, symObjAddr: 0x1530, symBinAddr: 0x100003180, symSize: 0x30 }
  - { offsetInCU: 0xA3CD, offset: 0xA3CD, size: 0x8, addend: 0x0, symName: __ZNSt3__16__treeINS_12basic_stringIcNS_11char_traitsIcEENS_9allocatorIcEEEENS_4lessIS6_EENS4_IS6_EEE10__end_nodeB7v160006Ev, symObjAddr: 0x1560, symBinAddr: 0x1000031B0, symSize: 0x30 }
  - { offsetInCU: 0xA3F1, offset: 0xA3F1, size: 0x8, addend: 0x0, symName: __ZNSt3__117__compressed_pairINS_15__tree_end_nodeIPNS_16__tree_node_baseIPvEEEENS_9allocatorINS_11__tree_nodeINS_12basic_stringIcNS_11char_traitsIcEENS7_IcEEEES3_EEEEE5firstB7v160006Ev, symObjAddr: 0x1590, symBinAddr: 0x1000031E0, symSize: 0x20 }
  - { offsetInCU: 0xA415, offset: 0xA415, size: 0x8, addend: 0x0, symName: __ZNSt3__122__compressed_pair_elemINS_15__tree_end_nodeIPNS_16__tree_node_baseIPvEEEELi0ELb0EE5__getB7v160006Ev, symObjAddr: 0x15B0, symBinAddr: 0x100003200, symSize: 0x10 }
  - { offsetInCU: 0xA439, offset: 0xA439, size: 0x8, addend: 0x0, symName: __ZNKSt3__116__tree_node_baseIPvE15__parent_unsafeB7v160006Ev, symObjAddr: 0x16E0, symBinAddr: 0x100003330, symSize: 0x20 }
  - { offsetInCU: 0xA45D, offset: 0xA45D, size: 0x8, addend: 0x0, symName: __ZNKSt3__121__tree_const_iteratorINS_12basic_stringIcNS_11char_traitsIcEENS_9allocatorIcEEEEPNS_11__tree_nodeIS6_PvEElE8__get_npB7v160006Ev, symObjAddr: 0x1700, symBinAddr: 0x100003350, symSize: 0x20 }
  - { offsetInCU: 0xA481, offset: 0xA481, size: 0x8, addend: 0x0, symName: __ZNKSt3__112basic_stringIcNS_11char_traitsIcEENS_9allocatorIcEEE4sizeB7v160006Ev, symObjAddr: 0x1720, symBinAddr: 0x100003370, symSize: 0x50 }
  - { offsetInCU: 0xA4A5, offset: 0xA4A5, size: 0x8, addend: 0x0, symName: __ZNKSt3__112basic_stringIcNS_11char_traitsIcEENS_9allocatorIcEEE15__get_long_sizeB7v160006Ev, symObjAddr: 0x1770, symBinAddr: 0x1000033C0, symSize: 0x20 }
  - { offsetInCU: 0xA4C9, offset: 0xA4C9, size: 0x8, addend: 0x0, symName: __ZNKSt3__112basic_stringIcNS_11char_traitsIcEENS_9allocatorIcEEE16__get_short_sizeB7v160006Ev, symObjAddr: 0x1790, symBinAddr: 0x1000033E0, symSize: 0x23 }
  - { offsetInCU: 0x2CBB, offset: 0xD22A, size: 0x8, addend: 0x0, symName: __ZNSt3__16copy_nB7v160006IPKcmPcEENS_9enable_ifIXsr33__is_cpp17_random_access_iteratorIT_EE5valueET1_E4typeES5_T0_S6_, symObjAddr: 0x12E0, symBinAddr: 0x1000044D0, symSize: 0x40 }
  - { offsetInCU: 0x5402, offset: 0xF971, size: 0x8, addend: 0x0, symName: __ZNSt3__1plB7v160006IcNS_11char_traitsIcEENS_9allocatorIcEEEENS_12basic_stringIT_T0_T1_EEOS9_PKS6_, symObjAddr: 0x570, symBinAddr: 0x100003980, symSize: 0x50 }
  - { offsetInCU: 0x545A, offset: 0xF9C9, size: 0x8, addend: 0x0, symName: __ZNSt3__1plB7v160006IcNS_11char_traitsIcEENS_9allocatorIcEEEENS_12basic_stringIT_T0_T1_EEOS9_SA_, symObjAddr: 0x5C0, symBinAddr: 0x1000039D0, symSize: 0x50 }
  - { offsetInCU: 0x54B2, offset: 0xFA21, size: 0x8, addend: 0x0, symName: __ZNSt3__1plB7v160006IcNS_11char_traitsIcEENS_9allocatorIcEEEENS_12basic_stringIT_T0_T1_EEOS9_RKS9_, symObjAddr: 0x610, symBinAddr: 0x100003A20, symSize: 0x50 }
  - { offsetInCU: 0x550A, offset: 0xFA79, size: 0x8, addend: 0x0, symName: __ZNSt3__1plB7v160006IcNS_11char_traitsIcEENS_9allocatorIcEEEENS_12basic_stringIT_T0_T1_EERKS9_PKS6_, symObjAddr: 0x660, symBinAddr: 0x100003A70, symSize: 0x100 }
  - { offsetInCU: 0x55AC, offset: 0xFB1B, size: 0x8, addend: 0x0, symName: __ZNSt3__112__to_addressB7v160006IcEEPT_S2_, symObjAddr: 0x8F0, symBinAddr: 0x100003C10, symSize: 0x10 }
  - { offsetInCU: 0x57ED, offset: 0xFD5C, size: 0x8, addend: 0x0, symName: __ZNSt3__120__throw_length_errorB7v160006EPKc, symObjAddr: 0x1070, symBinAddr: 0x100004260, symSize: 0x70 }
  - { offsetInCU: 0x5816, offset: 0xFD85, size: 0x8, addend: 0x0, symName: __ZNSt3__117__libcpp_allocateB7v160006Emm, symObjAddr: 0x1210, symBinAddr: 0x100004400, symSize: 0x20 }
  - { offsetInCU: 0x5853, offset: 0xFDC2, size: 0x8, addend: 0x0, symName: __ZNSt3__121__libcpp_operator_newB7v160006IJmEEEPvDpT_, symObjAddr: 0x1230, symBinAddr: 0x100004420, symSize: 0x20 }
  - { offsetInCU: 0x58BF, offset: 0xFE2E, size: 0x8, addend: 0x0, symName: __ZNSt3__14copyB7v160006IPKcPcEET0_T_S5_S4_, symObjAddr: 0x1320, symBinAddr: 0x100004510, symSize: 0x40 }
  - { offsetInCU: 0x5919, offset: 0xFE88, size: 0x8, addend: 0x0, symName: __ZNSt3__16__copyB7v160006INS_17_ClassicAlgPolicyEPKcS3_PcEENS_4pairIT0_T2_EES6_T1_S7_, symObjAddr: 0x1360, symBinAddr: 0x100004550, symSize: 0x40 }
  - { offsetInCU: 0x5985, offset: 0xFEF4, size: 0x8, addend: 0x0, symName: __ZNSt3__123__dispatch_copy_or_moveB7v160006INS_17_ClassicAlgPolicyENS_11__copy_loopIS1_EENS_14__copy_trivialEPKcS6_PcEENS_4pairIT2_T4_EES9_T3_SA_, symObjAddr: 0x13A0, symBinAddr: 0x100004590, symSize: 0x40 }
  - { offsetInCU: 0x5A03, offset: 0xFF72, size: 0x8, addend: 0x0, symName: __ZNSt3__121__unwrap_and_dispatchB7v160006INS_10__overloadINS_11__copy_loopINS_17_ClassicAlgPolicyEEENS_14__copy_trivialEEEPKcS8_PcLi0EEENS_4pairIT0_T2_EESB_T1_SC_, symObjAddr: 0x13E0, symBinAddr: 0x1000045D0, symSize: 0xB0 }
  - { offsetInCU: 0x5A93, offset: 0x10002, size: 0x8, addend: 0x0, symName: __ZNSt3__114__unwrap_rangeB7v160006IPKcS2_EENS_4pairIT0_S4_EET_S6_, symObjAddr: 0x1490, symBinAddr: 0x100004680, symSize: 0x50 }
  - { offsetInCU: 0x5C2B, offset: 0x1019A, size: 0x8, addend: 0x0, symName: __ZNSt3__113__unwrap_iterB7v160006IPcNS_18__unwrap_iter_implIS1_Lb1EEELi0EEEDTclsrT0_8__unwrapclsr3stdE7declvalIT_EEEES5_, symObjAddr: 0x1520, symBinAddr: 0x100004710, symSize: 0x20 }
  - { offsetInCU: 0x5C70, offset: 0x101DF, size: 0x8, addend: 0x0, symName: __ZNSt3__19make_pairB7v160006IPKcPcEENS_4pairINS_18__unwrap_ref_decayIT_E4typeENS5_IT0_E4typeEEEOS6_OS9_, symObjAddr: 0x1540, symBinAddr: 0x100004730, symSize: 0x30 }
  - { offsetInCU: 0x5CBF, offset: 0x1022E, size: 0x8, addend: 0x0, symName: __ZNSt3__114__rewrap_rangeB7v160006IPKcS2_EET_S3_T0_, symObjAddr: 0x1570, symBinAddr: 0x100004760, symSize: 0x30 }
  - { offsetInCU: 0x5D0B, offset: 0x1027A, size: 0x8, addend: 0x0, symName: __ZNSt3__113__rewrap_iterB7v160006IPcS1_NS_18__unwrap_iter_implIS1_Lb1EEEEET_S4_T0_, symObjAddr: 0x15A0, symBinAddr: 0x100004790, symSize: 0x40 }
  - { offsetInCU: 0x5D60, offset: 0x102CF, size: 0x8, addend: 0x0, symName: __ZNSt3__19make_pairB7v160006IPKcS2_EENS_4pairINS_18__unwrap_ref_decayIT_E4typeENS4_IT0_E4typeEEEOS5_OS8_, symObjAddr: 0x15E0, symBinAddr: 0x1000047D0, symSize: 0x30 }
  - { offsetInCU: 0x5DAF, offset: 0x1031E, size: 0x8, addend: 0x0, symName: __ZNSt3__113__unwrap_iterB7v160006IPKcNS_18__unwrap_iter_implIS2_Lb1EEELi0EEEDTclsrT0_8__unwrapclsr3stdE7declvalIT_EEEES6_, symObjAddr: 0x1610, symBinAddr: 0x100004800, symSize: 0x20 }
  - { offsetInCU: 0x5F1C, offset: 0x1048B, size: 0x8, addend: 0x0, symName: __ZNSt3__119__copy_trivial_implB7v160006IKccEENS_4pairIPT_PT0_EES4_S4_S6_, symObjAddr: 0x16C0, symBinAddr: 0x1000048A0, symSize: 0x70 }
  - { offsetInCU: 0x5F84, offset: 0x104F3, size: 0x8, addend: 0x0, symName: __ZNSt3__19make_pairB7v160006IRPKcPcEENS_4pairINS_18__unwrap_ref_decayIT_E4typeENS6_IT0_E4typeEEEOS7_OSA_, symObjAddr: 0x1730, symBinAddr: 0x100004910, symSize: 0x30 }
  - { offsetInCU: 0x6026, offset: 0x10595, size: 0x8, addend: 0x0, symName: __ZNSt3__113__rewrap_iterB7v160006IPKcS2_NS_18__unwrap_iter_implIS2_Lb1EEEEET_S5_T0_, symObjAddr: 0x1840, symBinAddr: 0x100004A20, symSize: 0x40 }
  - { offsetInCU: 0x607B, offset: 0x105EA, size: 0x8, addend: 0x0, symName: __ZNSt3__16fill_nB7v160006IPcmcEET_S2_T0_RKT1_, symObjAddr: 0x19B0, symBinAddr: 0x100004AE0, symSize: 0x40 }
  - { offsetInCU: 0x60DE, offset: 0x1064D, size: 0x8, addend: 0x0, symName: __ZNSt3__18__fill_nB7v160006IPcmcEET_S2_T0_RKT1_, symObjAddr: 0x19F0, symBinAddr: 0x100004B20, symSize: 0x50 }
  - { offsetInCU: 0x6141, offset: 0x106B0, size: 0x8, addend: 0x0, symName: __ZNSt3__121__convert_to_integralB7v160006Em, symObjAddr: 0x1A40, symBinAddr: 0x100004B70, symSize: 0x10 }
  - { offsetInCU: 0x616D, offset: 0x106DC, size: 0x8, addend: 0x0, symName: __ZNSt3__115__debug_db_swapB7v160006INS_12basic_stringIcNS_11char_traitsIcEENS_9allocatorIcEEEEEEvPT_S8_, symObjAddr: 0x1BA0, symBinAddr: 0x100004CD0, symSize: 0xE }
  - { offsetInCU: 0x6422, offset: 0x10991, size: 0x8, addend: 0x0, symName: __ZSt28__throw_bad_array_new_lengthB7v160006v, symObjAddr: 0x11D0, symBinAddr: 0x1000043C0, symSize: 0x40 }
  - { offsetInCU: 0x884A, offset: 0x12DB9, size: 0x8, addend: 0x0, symName: __ZN8ClothingC2ENSt3__112basic_stringIcNS0_11char_traitsIcEENS0_9allocatorIcEEEES6_diS6_S6_, symObjAddr: 0x0, symBinAddr: 0x100003410, symSize: 0x160 }
  - { offsetInCU: 0x88CD, offset: 0x12E3C, size: 0x8, addend: 0x0, symName: __ZN8ClothingC1ENSt3__112basic_stringIcNS0_11char_traitsIcEENS0_9allocatorIcEEEES6_diS6_S6_, symObjAddr: 0x160, symBinAddr: 0x100003570, symSize: 0x40 }
  - { offsetInCU: 0x8950, offset: 0x12EBF, size: 0x8, addend: 0x0, symName: __ZNK8Clothing8keywordsEv, symObjAddr: 0x1A0, symBinAddr: 0x1000035B0, symSize: 0x80 }
  - { offsetInCU: 0x8977, offset: 0x12EE6, size: 0x8, addend: 0x0, symName: __ZNK8Clothing13displayStringEv, symObjAddr: 0x220, symBinAddr: 0x100003630, symSize: 0x350 }
  - { offsetInCU: 0x899E, offset: 0x12F0D, size: 0x8, addend: 0x0, symName: __ZNK8Clothing4dumpERNSt3__113basic_ostreamIcNS0_11char_traitsIcEEEE, symObjAddr: 0x760, symBinAddr: 0x100003B70, symSize: 0x10 }
  - { offsetInCU: 0x89D3, offset: 0x12F42, size: 0x8, addend: 0x0, symName: __ZN8ClothingD0Ev, symObjAddr: 0x790, symBinAddr: 0x100003B80, symSize: 0x30 }
  - { offsetInCU: 0x8A08, offset: 0x12F77, size: 0x8, addend: 0x0, symName: __ZNSt3__116allocator_traitsINS_9allocatorIcEEE37select_on_container_copy_constructionB7v160006IS2_vvEES2_RKS2_, symObjAddr: 0x890, symBinAddr: 0x100003BB0, symSize: 0x10 }
  - { offsetInCU: 0x8A37, offset: 0x12FA6, size: 0x8, addend: 0x0, symName: __ZNKSt3__112basic_stringIcNS_11char_traitsIcEENS_9allocatorIcEEE13get_allocatorB7v160006Ev, symObjAddr: 0x8A0, symBinAddr: 0x100003BC0, symSize: 0x20 }
  - { offsetInCU: 0x8A5B, offset: 0x12FCA, size: 0x8, addend: 0x0, symName: __ZNSt3__112basic_stringIcNS_11char_traitsIcEENS_9allocatorIcEEEC1B7v160006ENS_24__uninitialized_size_tagEmRKS4_, symObjAddr: 0x8C0, symBinAddr: 0x100003BE0, symSize: 0x30 }
  - { offsetInCU: 0x8AAD, offset: 0x1301C, size: 0x8, addend: 0x0, symName: __ZNSt3__112basic_stringIcNS_11char_traitsIcEENS_9allocatorIcEEE13__get_pointerB7v160006Ev, symObjAddr: 0x900, symBinAddr: 0x100003C20, symSize: 0x50 }
  - { offsetInCU: 0x8AD1, offset: 0x13040, size: 0x8, addend: 0x0, symName: __ZNSt3__111char_traitsIcE4copyEPcPKcm, symObjAddr: 0x950, symBinAddr: 0x100003C70, symSize: 0x70 }
  - { offsetInCU: 0x8B10, offset: 0x1307F, size: 0x8, addend: 0x0, symName: __ZNSt3__111char_traitsIcE6assignEPcmc, symObjAddr: 0x9F0, symBinAddr: 0x100003CE0, symSize: 0x40 }
  - { offsetInCU: 0x8B4F, offset: 0x130BE, size: 0x8, addend: 0x0, symName: __ZNKSt3__112basic_stringIcNS_11char_traitsIcEENS_9allocatorIcEEE7__allocB7v160006Ev, symObjAddr: 0xB10, symBinAddr: 0x100003D20, symSize: 0x20 }
  - { offsetInCU: 0x8B73, offset: 0x130E2, size: 0x8, addend: 0x0, symName: __ZNKSt3__117__compressed_pairINS_12basic_stringIcNS_11char_traitsIcEENS_9allocatorIcEEE5__repES5_E6secondB7v160006Ev, symObjAddr: 0xB30, symBinAddr: 0x100003D40, symSize: 0x20 }
  - { offsetInCU: 0x8B97, offset: 0x13106, size: 0x8, addend: 0x0, symName: __ZNKSt3__122__compressed_pair_elemINS_9allocatorIcEELi1ELb1EE5__getB7v160006Ev, symObjAddr: 0xB50, symBinAddr: 0x100003D60, symSize: 0x10 }
  - { offsetInCU: 0x8BBB, offset: 0x1312A, size: 0x8, addend: 0x0, symName: __ZNSt3__112basic_stringIcNS_11char_traitsIcEENS_9allocatorIcEEEC2B7v160006ENS_24__uninitialized_size_tagEmRKS4_, symObjAddr: 0xB60, symBinAddr: 0x100003D70, symSize: 0x120 }
  - { offsetInCU: 0x8C40, offset: 0x131AF, size: 0x8, addend: 0x0, symName: __ZNSt3__117__compressed_pairINS_12basic_stringIcNS_11char_traitsIcEENS_9allocatorIcEEE5__repES5_EC1B7v160006INS_18__default_init_tagERKS5_EEOT_OT0_, symObjAddr: 0xC80, symBinAddr: 0x100003E90, symSize: 0x30 }
  - { offsetInCU: 0x8C96, offset: 0x13205, size: 0x8, addend: 0x0, symName: __ZNKSt3__112basic_stringIcNS_11char_traitsIcEENS_9allocatorIcEEE8max_sizeB7v160006Ev, symObjAddr: 0xCB0, symBinAddr: 0x100003EC0, symSize: 0xA0 }
  - { offsetInCU: 0x8CE6, offset: 0x13255, size: 0x8, addend: 0x0, symName: __ZNKSt3__112basic_stringIcNS_11char_traitsIcEENS_9allocatorIcEEE20__throw_length_errorB7v160006Ev, symObjAddr: 0xD50, symBinAddr: 0x100003F60, symSize: 0x20 }
  - { offsetInCU: 0x8D0A, offset: 0x13279, size: 0x8, addend: 0x0, symName: __ZNSt3__112basic_stringIcNS_11char_traitsIcEENS_9allocatorIcEEE13__fits_in_ssoB7v160006Em, symObjAddr: 0xD70, symBinAddr: 0x100003F80, symSize: 0x20 }
  - { offsetInCU: 0x8D2E, offset: 0x1329D, size: 0x8, addend: 0x0, symName: __ZNSt3__117__compressed_pairINS_12basic_stringIcNS_11char_traitsIcEENS_9allocatorIcEEE5__repES5_E5firstB7v160006Ev, symObjAddr: 0xD90, symBinAddr: 0x100003FA0, symSize: 0x20 }
  - { offsetInCU: 0x8D52, offset: 0x132C1, size: 0x8, addend: 0x0, symName: __ZNSt3__112basic_stringIcNS_11char_traitsIcEENS_9allocatorIcEEE16__set_short_sizeB7v160006Em, symObjAddr: 0xDB0, symBinAddr: 0x100003FC0, symSize: 0x50 }
  - { offsetInCU: 0x8D85, offset: 0x132F4, size: 0x8, addend: 0x0, symName: __ZNSt3__112basic_stringIcNS_11char_traitsIcEENS_9allocatorIcEEE11__recommendB7v160006Em, symObjAddr: 0xE00, symBinAddr: 0x100004010, symSize: 0x70 }
  - { offsetInCU: 0x8DB8, offset: 0x13327, size: 0x8, addend: 0x0, symName: __ZNSt3__116allocator_traitsINS_9allocatorIcEEE8allocateB7v160006ERS2_m, symObjAddr: 0xE70, symBinAddr: 0x100004080, symSize: 0x30 }
  - { offsetInCU: 0x8DEB, offset: 0x1335A, size: 0x8, addend: 0x0, symName: __ZNSt3__112basic_stringIcNS_11char_traitsIcEENS_9allocatorIcEEE7__allocB7v160006Ev, symObjAddr: 0xEA0, symBinAddr: 0x1000040B0, symSize: 0x20 }
  - { offsetInCU: 0x8E0F, offset: 0x1337E, size: 0x8, addend: 0x0, symName: __ZNSt3__112basic_stringIcNS_11char_traitsIcEENS_9allocatorIcEEE16__begin_lifetimeB7v160006EPcm, symObjAddr: 0xEC0, symBinAddr: 0x1000040D0, symSize: 0x10 }
  - { offsetInCU: 0x8E42, offset: 0x133B1, size: 0x8, addend: 0x0, symName: __ZNSt3__112basic_stringIcNS_11char_traitsIcEENS_9allocatorIcEEE14__set_long_capB7v160006Em, symObjAddr: 0xED0, symBinAddr: 0x1000040E0, symSize: 0x70 }
  - { offsetInCU: 0x8E75, offset: 0x133E4, size: 0x8, addend: 0x0, symName: __ZNSt3__112basic_stringIcNS_11char_traitsIcEENS_9allocatorIcEEE18__set_long_pointerB7v160006EPc, symObjAddr: 0xF40, symBinAddr: 0x100004150, symSize: 0x30 }
  - { offsetInCU: 0x8EA8, offset: 0x13417, size: 0x8, addend: 0x0, symName: __ZNSt3__112basic_stringIcNS_11char_traitsIcEENS_9allocatorIcEEE15__set_long_sizeB7v160006Em, symObjAddr: 0xF70, symBinAddr: 0x100004180, symSize: 0x30 }
  - { offsetInCU: 0x8EDB, offset: 0x1344A, size: 0x8, addend: 0x0, symName: __ZNSt3__117__compressed_pairINS_12basic_stringIcNS_11char_traitsIcEENS_9allocatorIcEEE5__repES5_EC2B7v160006INS_18__default_init_tagERKS5_EEOT_OT0_, symObjAddr: 0xFB0, symBinAddr: 0x1000041B0, symSize: 0x40 }
  - { offsetInCU: 0x8F31, offset: 0x134A0, size: 0x8, addend: 0x0, symName: __ZNSt3__122__compressed_pair_elemINS_9allocatorIcEELi1ELb1EEC2B7v160006IRKS2_vEEOT_, symObjAddr: 0x1000, symBinAddr: 0x1000041F0, symSize: 0x10 }
  - { offsetInCU: 0x8F71, offset: 0x134E0, size: 0x8, addend: 0x0, symName: __ZNSt3__116allocator_traitsINS_9allocatorIcEEE8max_sizeB7v160006IS2_vEEmRKS2_, symObjAddr: 0x1010, symBinAddr: 0x100004200, symSize: 0x20 }
  - { offsetInCU: 0x8F9F, offset: 0x1350E, size: 0x8, addend: 0x0, symName: __ZNSt3__114numeric_limitsImE3maxB7v160006Ev, symObjAddr: 0x1030, symBinAddr: 0x100004220, symSize: 0x10 }
  - { offsetInCU: 0x8FB3, offset: 0x13522, size: 0x8, addend: 0x0, symName: __ZNKSt3__19allocatorIcE8max_sizeB7v160006Ev, symObjAddr: 0x1040, symBinAddr: 0x100004230, symSize: 0x20 }
  - { offsetInCU: 0x8FD7, offset: 0x13546, size: 0x8, addend: 0x0, symName: __ZNSt3__123__libcpp_numeric_limitsImLb1EE3maxB7v160006Ev, symObjAddr: 0x1060, symBinAddr: 0x100004250, symSize: 0x10 }
  - { offsetInCU: 0x8FEB, offset: 0x1355A, size: 0x8, addend: 0x0, symName: __ZNSt12length_errorC1B7v160006EPKc, symObjAddr: 0x10E0, symBinAddr: 0x1000042D0, symSize: 0x30 }
  - { offsetInCU: 0x9021, offset: 0x13590, size: 0x8, addend: 0x0, symName: __ZNSt12length_errorC2B7v160006EPKc, symObjAddr: 0x1110, symBinAddr: 0x100004300, symSize: 0x40 }
  - { offsetInCU: 0x9057, offset: 0x135C6, size: 0x8, addend: 0x0, symName: __ZNSt3__122__compressed_pair_elemINS_12basic_stringIcNS_11char_traitsIcEENS_9allocatorIcEEE5__repELi0ELb0EE5__getB7v160006Ev, symObjAddr: 0x1150, symBinAddr: 0x100004340, symSize: 0x10 }
  - { offsetInCU: 0x907B, offset: 0x135EA, size: 0x8, addend: 0x0, symName: __ZNSt3__112basic_stringIcNS_11char_traitsIcEENS_9allocatorIcEEE10__align_itB7v160006ILm16EEEmm, symObjAddr: 0x1160, symBinAddr: 0x100004350, symSize: 0x20 }
  - { offsetInCU: 0x90A9, offset: 0x13618, size: 0x8, addend: 0x0, symName: __ZNSt3__19allocatorIcE8allocateB7v160006Em, symObjAddr: 0x1180, symBinAddr: 0x100004370, symSize: 0x50 }
  - { offsetInCU: 0x90DB, offset: 0x1364A, size: 0x8, addend: 0x0, symName: __ZNSt3__117__compressed_pairINS_12basic_stringIcNS_11char_traitsIcEENS_9allocatorIcEEE5__repES5_E6secondB7v160006Ev, symObjAddr: 0x1250, symBinAddr: 0x100004440, symSize: 0x20 }
  - { offsetInCU: 0x90FF, offset: 0x1366E, size: 0x8, addend: 0x0, symName: __ZNSt3__122__compressed_pair_elemINS_9allocatorIcEELi1ELb1EE5__getB7v160006Ev, symObjAddr: 0x1270, symBinAddr: 0x100004460, symSize: 0x10 }
  - { offsetInCU: 0x9123, offset: 0x13692, size: 0x8, addend: 0x0, symName: __ZNSt3__112basic_stringIcNS_11char_traitsIcEENS_9allocatorIcEEE18__get_long_pointerB7v160006Ev, symObjAddr: 0x1280, symBinAddr: 0x100004470, symSize: 0x20 }
  - { offsetInCU: 0x9147, offset: 0x136B6, size: 0x8, addend: 0x0, symName: __ZNSt3__112basic_stringIcNS_11char_traitsIcEENS_9allocatorIcEEE19__get_short_pointerB7v160006Ev, symObjAddr: 0x12A0, symBinAddr: 0x100004490, symSize: 0x30 }
  - { offsetInCU: 0x916B, offset: 0x136DA, size: 0x8, addend: 0x0, symName: __ZNSt3__114pointer_traitsIPcE10pointer_toB7v160006ERc, symObjAddr: 0x12D0, symBinAddr: 0x1000044C0, symSize: 0x10 }
  - { offsetInCU: 0x91B1, offset: 0x13720, size: 0x8, addend: 0x0, symName: __ZNKSt3__114__copy_trivialclB7v160006IKccLi0EEENS_4pairIPT_PT0_EES5_S5_S7_, symObjAddr: 0x14E0, symBinAddr: 0x1000046D0, symSize: 0x40 }
  - { offsetInCU: 0x9236, offset: 0x137A5, size: 0x8, addend: 0x0, symName: __ZNSt3__14pairIPKcS2_EC1B7v160006IS2_S2_LPv0EEEOT_OT0_, symObjAddr: 0x1630, symBinAddr: 0x100004820, symSize: 0x30 }
  - { offsetInCU: 0x9293, offset: 0x13802, size: 0x8, addend: 0x0, symName: __ZNSt3__14pairIPKcS2_EC2B7v160006IS2_S2_LPv0EEEOT_OT0_, symObjAddr: 0x1660, symBinAddr: 0x100004850, symSize: 0x30 }
  - { offsetInCU: 0x92F0, offset: 0x1385F, size: 0x8, addend: 0x0, symName: __ZNSt3__118__unwrap_iter_implIPKcLb1EE8__unwrapB7v160006ES2_, symObjAddr: 0x1690, symBinAddr: 0x100004880, symSize: 0x20 }
  - { offsetInCU: 0x931D, offset: 0x1388C, size: 0x8, addend: 0x0, symName: __ZNSt3__14pairIPKcPcEC1B7v160006IRS2_S3_LPv0EEEOT_OT0_, symObjAddr: 0x1760, symBinAddr: 0x100004940, symSize: 0x30 }
  - { offsetInCU: 0x937A, offset: 0x138E9, size: 0x8, addend: 0x0, symName: __ZNSt3__14pairIPKcPcEC2B7v160006IRS2_S3_LPv0EEEOT_OT0_, symObjAddr: 0x1790, symBinAddr: 0x100004970, symSize: 0x30 }
  - { offsetInCU: 0x93D7, offset: 0x13946, size: 0x8, addend: 0x0, symName: __ZNSt3__118__unwrap_iter_implIPcLb1EE8__unwrapB7v160006ES1_, symObjAddr: 0x17C0, symBinAddr: 0x1000049A0, symSize: 0x20 }
  - { offsetInCU: 0x93FA, offset: 0x13969, size: 0x8, addend: 0x0, symName: __ZNSt3__14pairIPKcPcEC1B7v160006IS2_S3_LPv0EEEOT_OT0_, symObjAddr: 0x17E0, symBinAddr: 0x1000049C0, symSize: 0x30 }
  - { offsetInCU: 0x9457, offset: 0x139C6, size: 0x8, addend: 0x0, symName: __ZNSt3__14pairIPKcPcEC2B7v160006IS2_S3_LPv0EEEOT_OT0_, symObjAddr: 0x1810, symBinAddr: 0x1000049F0, symSize: 0x30 }
  - { offsetInCU: 0x94B4, offset: 0x13A23, size: 0x8, addend: 0x0, symName: __ZNSt3__118__unwrap_iter_implIPKcLb1EE8__rewrapB7v160006ES2_S2_, symObjAddr: 0x1880, symBinAddr: 0x100004A60, symSize: 0x40 }
  - { offsetInCU: 0x94E5, offset: 0x13A54, size: 0x8, addend: 0x0, symName: __ZNSt3__118__unwrap_iter_implIPcLb1EE8__rewrapB7v160006ES1_S1_, symObjAddr: 0x18C0, symBinAddr: 0x100004AA0, symSize: 0x40 }
  - { offsetInCU: 0x9516, offset: 0x13A85, size: 0x8, addend: 0x0, symName: __ZNSt3__112basic_stringIcNS_11char_traitsIcEENS_9allocatorIcEEE6appendB7v160006ERKS5_, symObjAddr: 0x1A50, symBinAddr: 0x100004B80, symSize: 0x50 }
  - { offsetInCU: 0x9549, offset: 0x13AB8, size: 0x8, addend: 0x0, symName: __ZNSt3__112basic_stringIcNS_11char_traitsIcEENS_9allocatorIcEEEC1B7v160006EOS5_, symObjAddr: 0x1AA0, symBinAddr: 0x100004BD0, symSize: 0x30 }
  - { offsetInCU: 0x9580, offset: 0x13AEF, size: 0x8, addend: 0x0, symName: __ZNSt3__112basic_stringIcNS_11char_traitsIcEENS_9allocatorIcEEEC2B7v160006EOS5_, symObjAddr: 0x1AD0, symBinAddr: 0x100004C00, symSize: 0x80 }
  - { offsetInCU: 0x95B7, offset: 0x13B26, size: 0x8, addend: 0x0, symName: __ZNSt3__112basic_stringIcNS_11char_traitsIcEENS_9allocatorIcEEE14__default_initB7v160006Ev, symObjAddr: 0x1B50, symBinAddr: 0x100004C80, symSize: 0x50 }
  - { offsetInCU: 0x5EE2, offset: 0x19A67, size: 0x8, addend: 0x0, symName: __ZN7ProductC2ENSt3__112basic_stringIcNS0_11char_traitsIcEENS0_9allocatorIcEEEES6_di, symObjAddr: 0x0, symBinAddr: 0x100004CE0, symSize: 0xA0 }
  - { offsetInCU: 0x5F47, offset: 0x19ACC, size: 0x8, addend: 0x0, symName: __ZN7ProductD2Ev, symObjAddr: 0xA0, symBinAddr: 0x100004D80, symSize: 0x40 }
  - { offsetInCU: 0x5F72, offset: 0x19AF7, size: 0x8, addend: 0x0, symName: __ZN7ProductD1Ev, symObjAddr: 0xE0, symBinAddr: 0x100004DC0, symSize: 0x10 }
  - { offsetInCU: 0x5F9D, offset: 0x19B22, size: 0x8, addend: 0x0, symName: __ZN7ProductD0Ev, symObjAddr: 0xF0, symBinAddr: 0x100004DD0, symSize: 0x10 }
  - { offsetInCU: 0x5FC8, offset: 0x19B4D, size: 0x8, addend: 0x0, symName: __ZNK7Product8getPriceEv, symObjAddr: 0x100, symBinAddr: 0x100004DE0, symSize: 0x20 }
  - { offsetInCU: 0x5FEF, offset: 0x19B74, size: 0x8, addend: 0x0, symName: __ZNK7Product7getNameEv, symObjAddr: 0x120, symBinAddr: 0x100004E00, symSize: 0x30 }
  - { offsetInCU: 0x6016, offset: 0x19B9B, size: 0x8, addend: 0x0, symName: __ZN7Product11subtractQtyEi, symObjAddr: 0x150, symBinAddr: 0x100004E30, symSize: 0x20 }
  - { offsetInCU: 0x604B, offset: 0x19BD0, size: 0x8, addend: 0x0, symName: __ZNK7Product6getQtyEv, symObjAddr: 0x170, symBinAddr: 0x100004E50, symSize: 0x20 }
  - { offsetInCU: 0x6072, offset: 0x19BF7, size: 0x8, addend: 0x0, symName: __ZNK7Product7isMatchERNSt3__16vectorINS0_12basic_stringIcNS0_11char_traitsIcEENS0_9allocatorIcEEEENS5_IS7_EEEE, symObjAddr: 0x190, symBinAddr: 0x100004E70, symSize: 0x20 }
  - { offsetInCU: 0x60A7, offset: 0x19C2C, size: 0x8, addend: 0x0, symName: __ZNK7Product4dumpERNSt3__113basic_ostreamIcNS0_11char_traitsIcEEEE, symObjAddr: 0x1B0, symBinAddr: 0x100004E90, symSize: 0xA0 }
  - { offsetInCU: 0x4BF8, offset: 0x1E881, size: 0x8, addend: 0x0, symName: __ZNSt3__19transformB7v160006INS_11__wrap_iterIPcEES3_PFiiEEET0_T_S7_S6_T1_, symObjAddr: 0x80, symBinAddr: 0x100004FB0, symSize: 0x90 }
  - { offsetInCU: 0x5317, offset: 0x1EFA0, size: 0x8, addend: 0x0, symName: __ZNSt3__1neB7v160006IPcEEbRKNS_11__wrap_iterIT_EES6_, symObjAddr: 0x500, symBinAddr: 0x100005400, symSize: 0x30 }
  - { offsetInCU: 0x5379, offset: 0x1F002, size: 0x8, addend: 0x0, symName: __ZNSt3__17find_ifB7v160006INS_11__wrap_iterIPcEENS_12unary_negateINS_25pointer_to_unary_functionIiiEEEEEET_S8_S8_T0_, symObjAddr: 0x850, symBinAddr: 0x1000056E0, symSize: 0x90 }
  - { offsetInCU: 0x53D3, offset: 0x1F05C, size: 0x8, addend: 0x0, symName: __ZNSt3__14not1B7v160006INS_25pointer_to_unary_functionIiiEEEENS_12unary_negateIT_EERKS4_, symObjAddr: 0x8E0, symBinAddr: 0x100005770, symSize: 0x30 }
  - { offsetInCU: 0x5408, offset: 0x1F091, size: 0x8, addend: 0x0, symName: __ZNSt3__17ptr_funB7v160006IiiEENS_25pointer_to_unary_functionIT_T0_EEPFS3_S2_E, symObjAddr: 0x910, symBinAddr: 0x1000057A0, symSize: 0x30 }
  - { offsetInCU: 0x5446, offset: 0x1F0CF, size: 0x8, addend: 0x0, symName: __ZNSt3__17find_ifB7v160006INS_16reverse_iteratorINS_11__wrap_iterIPcEEEENS_12unary_negateINS_25pointer_to_unary_functionIiiEEEEEET_SA_SA_T0_, symObjAddr: 0xA40, symBinAddr: 0x1000058D0, symSize: 0x90 }
  - { offsetInCU: 0x54A0, offset: 0x1F129, size: 0x8, addend: 0x0, symName: __ZNSt3__1eqB7v160006IPcEEbRKNS_11__wrap_iterIT_EES6_, symObjAddr: 0xBC0, symBinAddr: 0x100005A50, symSize: 0x40 }
  - { offsetInCU: 0x54E3, offset: 0x1F16C, size: 0x8, addend: 0x0, symName: __ZNSt3__1ltB7v160006IcNS_11char_traitsIcEENS_9allocatorIcEEEEbRKNS_12basic_stringIT_T0_T1_EESB_, symObjAddr: 0x1F80, symBinAddr: 0x100006690, symSize: 0x30 }
  - { offsetInCU: 0x5560, offset: 0x1F1E9, size: 0x8, addend: 0x0, symName: __ZNSt3__13minB7v160006ImEERKT_S3_S3_, symObjAddr: 0x2200, symBinAddr: 0x1000068E0, symSize: 0x30 }
  - { offsetInCU: 0x55A3, offset: 0x1F22C, size: 0x8, addend: 0x0, symName: __ZNSt3__118__constexpr_memcmpB7v160006IcEEiPKT_S3_m, symObjAddr: 0x2230, symBinAddr: 0x100006910, symSize: 0x30 }
  - { offsetInCU: 0x55F4, offset: 0x1F27D, size: 0x8, addend: 0x0, symName: __ZNSt3__13minB7v160006ImNS_6__lessImmEEEERKT_S5_S5_T0_, symObjAddr: 0x2320, symBinAddr: 0x100006940, symSize: 0x50 }
  - { offsetInCU: 0x56A7, offset: 0x1F330, size: 0x8, addend: 0x0, symName: __ZNSt3__127__tree_balance_after_insertB7v160006IPNS_16__tree_node_baseIPvEEEEvT_S5_, symObjAddr: 0x27E0, symBinAddr: 0x100006D80, symSize: 0x320 }
  - { offsetInCU: 0x5723, offset: 0x1F3AC, size: 0x8, addend: 0x0, symName: __ZNSt3__118__tree_left_rotateB7v160006IPNS_16__tree_node_baseIPvEEEEvT_, symObjAddr: 0x2B70, symBinAddr: 0x1000070C0, symSize: 0xD0 }
  - { offsetInCU: 0x5765, offset: 0x1F3EE, size: 0x8, addend: 0x0, symName: __ZNSt3__119__tree_right_rotateB7v160006IPNS_16__tree_node_baseIPvEEEEvT_, symObjAddr: 0x2C40, symBinAddr: 0x100007190, symSize: 0xC0 }
  - { offsetInCU: 0x57A7, offset: 0x1F430, size: 0x8, addend: 0x0, symName: __ZNSt3__125__debug_db_invalidate_allB7v160006INS_12basic_stringIcNS_11char_traitsIcEENS_9allocatorIcEEEEEEvPT_, symObjAddr: 0x2F70, symBinAddr: 0x100007470, symSize: 0x10 }
  - { offsetInCU: 0x57D8, offset: 0x1F461, size: 0x8, addend: 0x0, symName: __ZNSt3__1miB7v160006IPKcPcEEDTmicldtfp_4baseEcldtfp0_4baseEERKNS_11__wrap_iterIT_EERKNS5_IT0_EE, symObjAddr: 0x30C0, symBinAddr: 0x100007590, symSize: 0x40 }
  - { offsetInCU: 0x5824, offset: 0x1F4AD, size: 0x8, addend: 0x0, symName: __ZNSt3__1miB7v160006IPKcS2_EEDTmicldtfp_4baseEcldtfp0_4baseEERKNS_11__wrap_iterIT_EERKNS4_IT0_EE, symObjAddr: 0x3100, symBinAddr: 0x1000075D0, symSize: 0x40 }
  - { offsetInCU: 0x5870, offset: 0x1F4F9, size: 0x8, addend: 0x0, symName: __ZNSt3__1neB7v160006INS_11__wrap_iterIPcEES3_EEbRKNS_16reverse_iteratorIT_EERKNS4_IT0_EE, symObjAddr: 0x3260, symBinAddr: 0x100007730, symSize: 0x50 }
  - { offsetInCU: 0x5DC6, offset: 0x1FA4F, size: 0x8, addend: 0x0, symName: __Z7isspacei, symObjAddr: 0x940, symBinAddr: 0x1000057D0, symSize: 0x20 }
  - { offsetInCU: 0x5E20, offset: 0x1FAA9, size: 0x8, addend: 0x0, symName: __Z7toloweri, symObjAddr: 0x1B0, symBinAddr: 0x1000050E0, symSize: 0x20 }
  - { offsetInCU: 0x7A97, offset: 0x21720, size: 0x8, addend: 0x0, symName: __Z11convToLowerNSt3__112basic_stringIcNS_11char_traitsIcEENS_9allocatorIcEEEE, symObjAddr: 0x0, symBinAddr: 0x100004F30, symSize: 0x80 }
  - { offsetInCU: 0x7AC4, offset: 0x2174D, size: 0x8, addend: 0x0, symName: __ZNSt3__112basic_stringIcNS_11char_traitsIcEENS_9allocatorIcEEE5beginB7v160006Ev, symObjAddr: 0x110, symBinAddr: 0x100005040, symSize: 0x50 }
  - { offsetInCU: 0x7AE8, offset: 0x21771, size: 0x8, addend: 0x0, symName: __ZNSt3__112basic_stringIcNS_11char_traitsIcEENS_9allocatorIcEEE3endB7v160006Ev, symObjAddr: 0x160, symBinAddr: 0x100005090, symSize: 0x50 }
  - { offsetInCU: 0x7B0C, offset: 0x21795, size: 0x8, addend: 0x0, symName: __Z18parseStringToWordsNSt3__112basic_stringIcNS_11char_traitsIcEENS_9allocatorIcEEEE, symObjAddr: 0x200, symBinAddr: 0x100005100, symSize: 0x290 }
  - { offsetInCU: 0x7B99, offset: 0x21822, size: 0x8, addend: 0x0, symName: __ZNSt3__112basic_stringIcNS_11char_traitsIcEENS_9allocatorIcEEEaSB7v160006EOS5_, symObjAddr: 0x490, symBinAddr: 0x100005390, symSize: 0x30 }
  - { offsetInCU: 0x7C30, offset: 0x218B9, size: 0x8, addend: 0x0, symName: __ZNSt3__13setINS_12basic_stringIcNS_11char_traitsIcEENS_9allocatorIcEEEENS_4lessIS6_EENS4_IS6_EEEC1B7v160006Ev, symObjAddr: 0x4C0, symBinAddr: 0x1000053C0, symSize: 0x20 }
  - { offsetInCU: 0x7C58, offset: 0x218E1, size: 0x8, addend: 0x0, symName: __ZNSt3__112basic_stringIcNS_11char_traitsIcEENS_9allocatorIcEEEC1B7v160006Ev, symObjAddr: 0x4E0, symBinAddr: 0x1000053E0, symSize: 0x20 }
  - { offsetInCU: 0x7C80, offset: 0x21909, size: 0x8, addend: 0x0, symName: __ZNKSt3__111__wrap_iterIPcEdeB7v160006Ev, symObjAddr: 0x530, symBinAddr: 0x100005430, symSize: 0x20 }
  - { offsetInCU: 0x7CA4, offset: 0x2192D, size: 0x8, addend: 0x0, symName: __ZNSt3__13setINS_12basic_stringIcNS_11char_traitsIcEENS_9allocatorIcEEEENS_4lessIS6_EENS4_IS6_EEE6insertB7v160006ERKS6_, symObjAddr: 0x5A0, symBinAddr: 0x100005450, symSize: 0x40 }
  - { offsetInCU: 0x7CD7, offset: 0x21960, size: 0x8, addend: 0x0, symName: __ZNSt3__112basic_stringIcNS_11char_traitsIcEENS_9allocatorIcEEE5clearB7v160006Ev, symObjAddr: 0x5E0, symBinAddr: 0x100005490, symSize: 0xA0 }
  - { offsetInCU: 0x7CFE, offset: 0x21987, size: 0x8, addend: 0x0, symName: __ZNSt3__112basic_stringIcNS_11char_traitsIcEENS_9allocatorIcEEEpLB7v160006Ec, symObjAddr: 0x680, symBinAddr: 0x100005530, symSize: 0x30 }
  - { offsetInCU: 0x7D31, offset: 0x219BA, size: 0x8, addend: 0x0, symName: __ZNSt3__111__wrap_iterIPcEppB7v160006Ev, symObjAddr: 0x6B0, symBinAddr: 0x100005560, symSize: 0x20 }
  - { offsetInCU: 0x7D55, offset: 0x219DE, size: 0x8, addend: 0x0, symName: __Z5ltrimRNSt3__112basic_stringIcNS_11char_traitsIcEENS_9allocatorIcEEEE, symObjAddr: 0x6F0, symBinAddr: 0x100005580, symSize: 0xB0 }
  - { offsetInCU: 0x7D81, offset: 0x21A0A, size: 0x8, addend: 0x0, symName: __ZNSt3__112basic_stringIcNS_11char_traitsIcEENS_9allocatorIcEEE5eraseB7v160006ENS_11__wrap_iterIPKcEES9_, symObjAddr: 0x7A0, symBinAddr: 0x100005630, symSize: 0x80 }
  - { offsetInCU: 0x7DEE, offset: 0x21A77, size: 0x8, addend: 0x0, symName: __ZNSt3__111__wrap_iterIPKcEC1B7v160006IPcEERKNS0_IT_EEPNS_9enable_ifIXsr14is_convertibleIS6_S2_EE5valueEvE4typeE, symObjAddr: 0x820, symBinAddr: 0x1000056B0, symSize: 0x30 }
  - { offsetInCU: 0x7E38, offset: 0x21AC1, size: 0x8, addend: 0x0, symName: __Z5rtrimRNSt3__112basic_stringIcNS_11char_traitsIcEENS_9allocatorIcEEEE, symObjAddr: 0x960, symBinAddr: 0x1000057F0, symSize: 0xE0 }
  - { offsetInCU: 0x7E64, offset: 0x21AED, size: 0x8, addend: 0x0, symName: __ZNSt3__112basic_stringIcNS_11char_traitsIcEENS_9allocatorIcEEE6rbeginB7v160006Ev, symObjAddr: 0xAD0, symBinAddr: 0x100005960, symSize: 0x50 }
  - { offsetInCU: 0x7E88, offset: 0x21B11, size: 0x8, addend: 0x0, symName: __ZNSt3__112basic_stringIcNS_11char_traitsIcEENS_9allocatorIcEEE4rendB7v160006Ev, symObjAddr: 0xB20, symBinAddr: 0x1000059B0, symSize: 0x50 }
  - { offsetInCU: 0x7EAC, offset: 0x21B35, size: 0x8, addend: 0x0, symName: __ZNKSt3__116reverse_iteratorINS_11__wrap_iterIPcEEE4baseB7v160006Ev, symObjAddr: 0xB70, symBinAddr: 0x100005A00, symSize: 0x20 }
  - { offsetInCU: 0x7ED0, offset: 0x21B59, size: 0x8, addend: 0x0, symName: __Z4trimRNSt3__112basic_stringIcNS_11char_traitsIcEENS_9allocatorIcEEEE, symObjAddr: 0xB90, symBinAddr: 0x100005A20, symSize: 0x30 }
  - { offsetInCU: 0x7EFC, offset: 0x21B85, size: 0x8, addend: 0x0, symName: __ZNKSt3__111__wrap_iterIPcE4baseB7v160006Ev, symObjAddr: 0xC00, symBinAddr: 0x100005A90, symSize: 0x20 }
  - { offsetInCU: 0x7F20, offset: 0x21BA9, size: 0x8, addend: 0x0, symName: __Z8__istypeim, symObjAddr: 0xC20, symBinAddr: 0x100005AB0, symSize: 0x70 }
  - { offsetInCU: 0x7F5A, offset: 0x21BE3, size: 0x8, addend: 0x0, symName: __Z7isasciii, symObjAddr: 0xC90, symBinAddr: 0x100005B20, symSize: 0x20 }
  - { offsetInCU: 0x7F86, offset: 0x21C0F, size: 0x8, addend: 0x0, symName: __ZNSt3__112basic_stringIcNS_11char_traitsIcEENS_9allocatorIcEEE15__make_iteratorB7v160006EPc, symObjAddr: 0xE50, symBinAddr: 0x100005B40, symSize: 0x30 }
  - { offsetInCU: 0x7FB9, offset: 0x21C42, size: 0x8, addend: 0x0, symName: __ZNSt3__111__wrap_iterIPcEC1B7v160006EPKvS1_, symObjAddr: 0xED0, symBinAddr: 0x100005B70, symSize: 0x30 }
  - { offsetInCU: 0x7FFD, offset: 0x21C86, size: 0x8, addend: 0x0, symName: __ZNSt3__111__wrap_iterIPcEC2B7v160006EPKvS1_, symObjAddr: 0xF00, symBinAddr: 0x100005BA0, symSize: 0x20 }
  - { offsetInCU: 0x8041, offset: 0x21CCA, size: 0x8, addend: 0x0, symName: __ZNSt3__112basic_stringIcNS_11char_traitsIcEENS_9allocatorIcEEE13__move_assignB7v160006ERS5_NS_17integral_constantIbLb1EEE, symObjAddr: 0xF80, symBinAddr: 0x100005BC0, symSize: 0xD0 }
  - { offsetInCU: 0x8083, offset: 0x21D0C, size: 0x8, addend: 0x0, symName: __ZNSt3__116allocator_traitsINS_9allocatorIcEEE10deallocateB7v160006ERS2_Pcm, symObjAddr: 0x1050, symBinAddr: 0x100005C90, symSize: 0x30 }
  - { offsetInCU: 0x80C5, offset: 0x21D4E, size: 0x8, addend: 0x0, symName: __ZNKSt3__112basic_stringIcNS_11char_traitsIcEENS_9allocatorIcEEE14__get_long_capB7v160006Ev, symObjAddr: 0x10A0, symBinAddr: 0x100005CC0, symSize: 0x30 }
  - { offsetInCU: 0x80E9, offset: 0x21D72, size: 0x8, addend: 0x0, symName: __ZNSt3__112basic_stringIcNS_11char_traitsIcEENS_9allocatorIcEEE19__move_assign_allocB7v160006ERS5_, symObjAddr: 0x10D0, symBinAddr: 0x100005CF0, symSize: 0x30 }
  - { offsetInCU: 0x811C, offset: 0x21DA5, size: 0x8, addend: 0x0, symName: __ZNSt3__111char_traitsIcE6assignERcRKc, symObjAddr: 0x1150, symBinAddr: 0x100005D20, symSize: 0x20 }
  - { offsetInCU: 0x814D, offset: 0x21DD6, size: 0x8, addend: 0x0, symName: __ZNSt3__19allocatorIcE10deallocateB7v160006EPcm, symObjAddr: 0x1170, symBinAddr: 0x100005D40, symSize: 0x40 }
  - { offsetInCU: 0x818D, offset: 0x21E16, size: 0x8, addend: 0x0, symName: __ZNSt3__112basic_stringIcNS_11char_traitsIcEENS_9allocatorIcEEE19__move_assign_allocB7v160006ERS5_NS_17integral_constantIbLb1EEE, symObjAddr: 0x1250, symBinAddr: 0x100005D80, symSize: 0x30 }
  - { offsetInCU: 0x81CC, offset: 0x21E55, size: 0x8, addend: 0x0, symName: __ZNSt3__13setINS_12basic_stringIcNS_11char_traitsIcEENS_9allocatorIcEEEENS_4lessIS6_EENS4_IS6_EEEC2B7v160006Ev, symObjAddr: 0x1280, symBinAddr: 0x100005DB0, symSize: 0x20 }
  - { offsetInCU: 0x81F4, offset: 0x21E7D, size: 0x8, addend: 0x0, symName: __ZNSt3__16__treeINS_12basic_stringIcNS_11char_traitsIcEENS_9allocatorIcEEEENS_4lessIS6_EENS4_IS6_EEEC1ERKS8_, symObjAddr: 0x12A0, symBinAddr: 0x100005DD0, symSize: 0x30 }
  - { offsetInCU: 0x822E, offset: 0x21EB7, size: 0x8, addend: 0x0, symName: __ZNSt3__16__treeINS_12basic_stringIcNS_11char_traitsIcEENS_9allocatorIcEEEENS_4lessIS6_EENS4_IS6_EEEC2ERKS8_, symObjAddr: 0x12D0, symBinAddr: 0x100005E00, symSize: 0x80 }
  - { offsetInCU: 0x8268, offset: 0x21EF1, size: 0x8, addend: 0x0, symName: __ZNSt3__117__compressed_pairINS_15__tree_end_nodeIPNS_16__tree_node_baseIPvEEEENS_9allocatorINS_11__tree_nodeINS_12basic_stringIcNS_11char_traitsIcEENS7_IcEEEES3_EEEEEC1B7v160006ILb1EvEEv, symObjAddr: 0x1350, symBinAddr: 0x100005E80, symSize: 0x20 }
  - { offsetInCU: 0x82A0, offset: 0x21F29, size: 0x8, addend: 0x0, symName: __ZNSt3__117__compressed_pairImNS_4lessINS_12basic_stringIcNS_11char_traitsIcEENS_9allocatorIcEEEEEEEC1B7v160006IiRKS8_EEOT_OT0_, symObjAddr: 0x1370, symBinAddr: 0x100005EA0, symSize: 0x30 }
  - { offsetInCU: 0x82F6, offset: 0x21F7F, size: 0x8, addend: 0x0, symName: __ZNSt3__117__compressed_pairINS_15__tree_end_nodeIPNS_16__tree_node_baseIPvEEEENS_9allocatorINS_11__tree_nodeINS_12basic_stringIcNS_11char_traitsIcEENS7_IcEEEES3_EEEEEC2B7v160006ILb1EvEEv, symObjAddr: 0x13E0, symBinAddr: 0x100005ED0, symSize: 0x30 }
  - { offsetInCU: 0x8329, offset: 0x21FB2, size: 0x8, addend: 0x0, symName: __ZNSt3__122__compressed_pair_elemINS_15__tree_end_nodeIPNS_16__tree_node_baseIPvEEEELi0ELb0EEC2B7v160006ENS_16__value_init_tagE, symObjAddr: 0x1410, symBinAddr: 0x100005F00, symSize: 0x20 }
  - { offsetInCU: 0x835C, offset: 0x21FE5, size: 0x8, addend: 0x0, symName: __ZNSt3__122__compressed_pair_elemINS_9allocatorINS_11__tree_nodeINS_12basic_stringIcNS_11char_traitsIcEENS1_IcEEEEPvEEEELi1ELb1EEC2B7v160006ENS_16__value_init_tagE, symObjAddr: 0x1430, symBinAddr: 0x100005F20, symSize: 0x20 }
  - { offsetInCU: 0x838F, offset: 0x22018, size: 0x8, addend: 0x0, symName: __ZNSt3__115__tree_end_nodeIPNS_16__tree_node_baseIPvEEEC1B7v160006Ev, symObjAddr: 0x1450, symBinAddr: 0x100005F40, symSize: 0x20 }
  - { offsetInCU: 0x83B7, offset: 0x22040, size: 0x8, addend: 0x0, symName: __ZNSt3__115__tree_end_nodeIPNS_16__tree_node_baseIPvEEEC2B7v160006Ev, symObjAddr: 0x1470, symBinAddr: 0x100005F60, symSize: 0x20 }
  - { offsetInCU: 0x83DF, offset: 0x22068, size: 0x8, addend: 0x0, symName: __ZNSt3__19allocatorINS_11__tree_nodeINS_12basic_stringIcNS_11char_traitsIcEENS0_IcEEEEPvEEEC2B7v160006Ev, symObjAddr: 0x1490, symBinAddr: 0x100005F80, symSize: 0x20 }
  - { offsetInCU: 0x8407, offset: 0x22090, size: 0x8, addend: 0x0, symName: __ZNSt3__116__non_trivial_ifILb1ENS_9allocatorINS_11__tree_nodeINS_12basic_stringIcNS_11char_traitsIcEENS1_IcEEEEPvEEEEEC2B7v160006Ev, symObjAddr: 0x14B0, symBinAddr: 0x100005FA0, symSize: 0x10 }
  - { offsetInCU: 0x842F, offset: 0x220B8, size: 0x8, addend: 0x0, symName: __ZNSt3__117__compressed_pairImNS_4lessINS_12basic_stringIcNS_11char_traitsIcEENS_9allocatorIcEEEEEEEC2B7v160006IiRKS8_EEOT_OT0_, symObjAddr: 0x14C0, symBinAddr: 0x100005FB0, symSize: 0x40 }
  - { offsetInCU: 0x8485, offset: 0x2210E, size: 0x8, addend: 0x0, symName: __ZNSt3__122__compressed_pair_elemImLi0ELb0EEC2B7v160006IivEEOT_, symObjAddr: 0x1500, symBinAddr: 0x100005FF0, symSize: 0x20 }
  - { offsetInCU: 0x84C5, offset: 0x2214E, size: 0x8, addend: 0x0, symName: __ZNSt3__122__compressed_pair_elemINS_4lessINS_12basic_stringIcNS_11char_traitsIcEENS_9allocatorIcEEEEEELi1ELb1EEC2B7v160006IRKS8_vEEOT_, symObjAddr: 0x1520, symBinAddr: 0x100006010, symSize: 0x10 }
  - { offsetInCU: 0x8505, offset: 0x2218E, size: 0x8, addend: 0x0, symName: __ZNSt3__112basic_stringIcNS_11char_traitsIcEENS_9allocatorIcEEEC2B7v160006Ev, symObjAddr: 0x1800, symBinAddr: 0x100006020, symSize: 0x50 }
  - { offsetInCU: 0x852D, offset: 0x221B6, size: 0x8, addend: 0x0, symName: __ZNSt3__16__treeINS_12basic_stringIcNS_11char_traitsIcEENS_9allocatorIcEEEENS_4lessIS6_EENS4_IS6_EEE15__insert_uniqueB7v160006ERKS6_, symObjAddr: 0x1960, symBinAddr: 0x100006070, symSize: 0x50 }
  - { offsetInCU: 0x8560, offset: 0x221E9, size: 0x8, addend: 0x0, symName: __ZNSt3__14pairINS_21__tree_const_iteratorINS_12basic_stringIcNS_11char_traitsIcEENS_9allocatorIcEEEEPNS_11__tree_nodeIS7_PvEElEEbEC1B7v160006INS_15__tree_iteratorIS7_SB_lEEbLS9_0EEEONS0_IT_T0_EE, symObjAddr: 0x19B0, symBinAddr: 0x1000060C0, symSize: 0x30 }
  - { offsetInCU: 0x85B0, offset: 0x22239, size: 0x8, addend: 0x0, symName: __ZNSt3__16__treeINS_12basic_stringIcNS_11char_traitsIcEENS_9allocatorIcEEEENS_4lessIS6_EENS4_IS6_EEE25__emplace_unique_key_argsIS6_JRKS6_EEENS_4pairINS_15__tree_iteratorIS6_PNS_11__tree_nodeIS6_PvEElEEbEERKT_DpOT0_, symObjAddr: 0x19E0, symBinAddr: 0x1000060F0, symSize: 0xE0 }
  - { offsetInCU: 0x8664, offset: 0x222ED, size: 0x8, addend: 0x0, symName: __ZNSt3__122__tree_key_value_typesINS_12basic_stringIcNS_11char_traitsIcEENS_9allocatorIcEEEEE9__get_keyB7v160006ERKS6_, symObjAddr: 0x1AC0, symBinAddr: 0x1000061D0, symSize: 0x10 }
  - { offsetInCU: 0x8688, offset: 0x22311, size: 0x8, addend: 0x0, symName: __ZNSt3__16__treeINS_12basic_stringIcNS_11char_traitsIcEENS_9allocatorIcEEEENS_4lessIS6_EENS4_IS6_EEE12__find_equalIS6_EERPNS_16__tree_node_baseIPvEERPNS_15__tree_end_nodeISF_EERKT_, symObjAddr: 0x1AD0, symBinAddr: 0x1000061E0, symSize: 0x180 }
  - { offsetInCU: 0x86F4, offset: 0x2237D, size: 0x8, addend: 0x0, symName: __ZNSt3__16__treeINS_12basic_stringIcNS_11char_traitsIcEENS_9allocatorIcEEEENS_4lessIS6_EENS4_IS6_EEE16__construct_nodeIJRKS6_EEENS_10unique_ptrINS_11__tree_nodeIS6_PvEENS_22__tree_node_destructorINS4_ISH_EEEEEEDpOT_, symObjAddr: 0x1C50, symBinAddr: 0x100006360, symSize: 0xF0 }
  - { offsetInCU: 0x8754, offset: 0x223DD, size: 0x8, addend: 0x0, symName: __ZNSt3__16__treeINS_12basic_stringIcNS_11char_traitsIcEENS_9allocatorIcEEEENS_4lessIS6_EENS4_IS6_EEE16__insert_node_atEPNS_15__tree_end_nodeIPNS_16__tree_node_baseIPvEEEERSF_SF_, symObjAddr: 0x1D40, symBinAddr: 0x100006450, symSize: 0xC0 }
  - { offsetInCU: 0x87A8, offset: 0x22431, size: 0x8, addend: 0x0, symName: __ZNKSt3__110unique_ptrINS_11__tree_nodeINS_12basic_stringIcNS_11char_traitsIcEENS_9allocatorIcEEEEPvEENS_22__tree_node_destructorINS5_IS9_EEEEE3getB7v160006Ev, symObjAddr: 0x1E00, symBinAddr: 0x100006510, symSize: 0x20 }
  - { offsetInCU: 0x87CC, offset: 0x22455, size: 0x8, addend: 0x0, symName: __ZNSt3__110unique_ptrINS_11__tree_nodeINS_12basic_stringIcNS_11char_traitsIcEENS_9allocatorIcEEEEPvEENS_22__tree_node_destructorINS5_IS9_EEEEE7releaseB7v160006Ev, symObjAddr: 0x1E20, symBinAddr: 0x100006530, symSize: 0x40 }
  - { offsetInCU: 0x87FF, offset: 0x22488, size: 0x8, addend: 0x0, symName: __ZNSt3__110unique_ptrINS_11__tree_nodeINS_12basic_stringIcNS_11char_traitsIcEENS_9allocatorIcEEEEPvEENS_22__tree_node_destructorINS5_IS9_EEEEED1B7v160006Ev, symObjAddr: 0x1E60, symBinAddr: 0x100006570, symSize: 0x20 }
  - { offsetInCU: 0x8827, offset: 0x224B0, size: 0x8, addend: 0x0, symName: __ZNSt3__115__tree_iteratorINS_12basic_stringIcNS_11char_traitsIcEENS_9allocatorIcEEEEPNS_11__tree_nodeIS6_PvEElEC1B7v160006ESA_, symObjAddr: 0x1E80, symBinAddr: 0x100006590, symSize: 0x30 }
  - { offsetInCU: 0x8868, offset: 0x224F1, size: 0x8, addend: 0x0, symName: __ZNSt3__14pairINS_15__tree_iteratorINS_12basic_stringIcNS_11char_traitsIcEENS_9allocatorIcEEEEPNS_11__tree_nodeIS7_PvEElEEbEC1B7v160006ISC_RbLS9_0EEEOT_OT0_, symObjAddr: 0x1EB0, symBinAddr: 0x1000065C0, symSize: 0x30 }
  - { offsetInCU: 0x88C5, offset: 0x2254E, size: 0x8, addend: 0x0, symName: __ZNKSt3__16__treeINS_12basic_stringIcNS_11char_traitsIcEENS_9allocatorIcEEEENS_4lessIS6_EENS4_IS6_EEE10__root_ptrEv, symObjAddr: 0x1EE0, symBinAddr: 0x1000065F0, symSize: 0x20 }
  - { offsetInCU: 0x88E9, offset: 0x22572, size: 0x8, addend: 0x0, symName: __ZNSt3__16__treeINS_12basic_stringIcNS_11char_traitsIcEENS_9allocatorIcEEEENS_4lessIS6_EENS4_IS6_EEE10value_compB7v160006Ev, symObjAddr: 0x1F00, symBinAddr: 0x100006610, symSize: 0x20 }
  - { offsetInCU: 0x890D, offset: 0x22596, size: 0x8, addend: 0x0, symName: __ZNKSt3__14lessINS_12basic_stringIcNS_11char_traitsIcEENS_9allocatorIcEEEEEclB7v160006ERKS6_S9_, symObjAddr: 0x1F20, symBinAddr: 0x100006630, symSize: 0x30 }
  - { offsetInCU: 0x894F, offset: 0x225D8, size: 0x8, addend: 0x0, symName: __ZNSt3__117__compressed_pairImNS_4lessINS_12basic_stringIcNS_11char_traitsIcEENS_9allocatorIcEEEEEEE6secondB7v160006Ev, symObjAddr: 0x1F50, symBinAddr: 0x100006660, symSize: 0x20 }
  - { offsetInCU: 0x8973, offset: 0x225FC, size: 0x8, addend: 0x0, symName: __ZNSt3__122__compressed_pair_elemINS_4lessINS_12basic_stringIcNS_11char_traitsIcEENS_9allocatorIcEEEEEELi1ELb1EE5__getB7v160006Ev, symObjAddr: 0x1F70, symBinAddr: 0x100006680, symSize: 0x10 }
  - { offsetInCU: 0x8997, offset: 0x22620, size: 0x8, addend: 0x0, symName: __ZNKSt3__112basic_stringIcNS_11char_traitsIcEENS_9allocatorIcEEE7compareB7v160006ERKS5_, symObjAddr: 0x1FB0, symBinAddr: 0x1000066C0, symSize: 0x40 }
  - { offsetInCU: 0x89CD, offset: 0x22656, size: 0x8, addend: 0x0, symName: __ZNKSt3__112basic_stringIcNS_11char_traitsIcEENS_9allocatorIcEEE7compareINS_17basic_string_viewIcS2_EEEENS_9enable_ifIXsr33__can_be_converted_to_string_viewIcS2_T_EE5valueEiE4typeERKSA_, symObjAddr: 0x1FF0, symBinAddr: 0x100006700, symSize: 0xF0 }
  - { offsetInCU: 0x8A49, offset: 0x226D2, size: 0x8, addend: 0x0, symName: __ZNKSt3__112basic_stringIcNS_11char_traitsIcEENS_9allocatorIcEEEcvNS_17basic_string_viewIcS2_EEB7v160006Ev, symObjAddr: 0x20E0, symBinAddr: 0x1000067F0, symSize: 0x50 }
  - { offsetInCU: 0x8A6D, offset: 0x226F6, size: 0x8, addend: 0x0, symName: __ZNKSt3__117basic_string_viewIcNS_11char_traitsIcEEE4sizeB7v160006Ev, symObjAddr: 0x2130, symBinAddr: 0x100006840, symSize: 0x20 }
  - { offsetInCU: 0x8A91, offset: 0x2271A, size: 0x8, addend: 0x0, symName: __ZNSt3__111char_traitsIcE7compareEPKcS3_m, symObjAddr: 0x2150, symBinAddr: 0x100006860, symSize: 0x60 }
  - { offsetInCU: 0x8AD0, offset: 0x22759, size: 0x8, addend: 0x0, symName: __ZNKSt3__117basic_string_viewIcNS_11char_traitsIcEEE4dataB7v160006Ev, symObjAddr: 0x21E0, symBinAddr: 0x1000068C0, symSize: 0x20 }
  - { offsetInCU: 0x8AFE, offset: 0x22787, size: 0x8, addend: 0x0, symName: __ZNKSt3__16__lessImmEclB7v160006ERKmS3_, symObjAddr: 0x2370, symBinAddr: 0x100006990, symSize: 0x30 }
  - { offsetInCU: 0x8B3E, offset: 0x227C7, size: 0x8, addend: 0x0, symName: __ZNSt3__117basic_string_viewIcNS_11char_traitsIcEEEC1B7v160006EPKcm, symObjAddr: 0x23A0, symBinAddr: 0x1000069C0, symSize: 0x30 }
  - { offsetInCU: 0x8B84, offset: 0x2280D, size: 0x8, addend: 0x0, symName: __ZNSt3__117basic_string_viewIcNS_11char_traitsIcEEEC2B7v160006EPKcm, symObjAddr: 0x23D0, symBinAddr: 0x1000069F0, symSize: 0x30 }
  - { offsetInCU: 0x8BCA, offset: 0x22853, size: 0x8, addend: 0x0, symName: __ZNSt3__116allocator_traitsINS_9allocatorINS_11__tree_nodeINS_12basic_stringIcNS_11char_traitsIcEENS1_IcEEEEPvEEEEE8allocateB7v160006ERSA_m, symObjAddr: 0x2400, symBinAddr: 0x100006A20, symSize: 0x30 }
  - { offsetInCU: 0x8BFD, offset: 0x22886, size: 0x8, addend: 0x0, symName: __ZNSt3__122__tree_node_destructorINS_9allocatorINS_11__tree_nodeINS_12basic_stringIcNS_11char_traitsIcEENS1_IcEEEEPvEEEEEC1B7v160006ERSA_b, symObjAddr: 0x2430, symBinAddr: 0x100006A50, symSize: 0x40 }
  - { offsetInCU: 0x8C48, offset: 0x228D1, size: 0x8, addend: 0x0, symName: __ZNSt3__110unique_ptrINS_11__tree_nodeINS_12basic_stringIcNS_11char_traitsIcEENS_9allocatorIcEEEEPvEENS_22__tree_node_destructorINS5_IS9_EEEEEC1B7v160006ILb1EvEEPS9_NS_16__dependent_typeINS_27__unique_ptr_deleter_sfinaeISC_EEXT_EE20__good_rval_ref_typeE, symObjAddr: 0x2470, symBinAddr: 0x100006A90, symSize: 0x30 }
  - { offsetInCU: 0x8C97, offset: 0x22920, size: 0x8, addend: 0x0, symName: __ZNSt3__116allocator_traitsINS_9allocatorINS_11__tree_nodeINS_12basic_stringIcNS_11char_traitsIcEENS1_IcEEEEPvEEEEE9constructB7v160006IS7_JRKS7_EvEEvRSA_PT_DpOT0_, symObjAddr: 0x24A0, symBinAddr: 0x100006AC0, symSize: 0x30 }
  - { offsetInCU: 0x8CEE, offset: 0x22977, size: 0x8, addend: 0x0, symName: __ZNKSt3__110unique_ptrINS_11__tree_nodeINS_12basic_stringIcNS_11char_traitsIcEENS_9allocatorIcEEEEPvEENS_22__tree_node_destructorINS5_IS9_EEEEEptB7v160006Ev, symObjAddr: 0x24D0, symBinAddr: 0x100006AF0, symSize: 0x20 }
  - { offsetInCU: 0x8D12, offset: 0x2299B, size: 0x8, addend: 0x0, symName: __ZNSt3__110unique_ptrINS_11__tree_nodeINS_12basic_stringIcNS_11char_traitsIcEENS_9allocatorIcEEEEPvEENS_22__tree_node_destructorINS5_IS9_EEEEE11get_deleterB7v160006Ev, symObjAddr: 0x24F0, symBinAddr: 0x100006B10, symSize: 0x20 }
  - { offsetInCU: 0x8D36, offset: 0x229BF, size: 0x8, addend: 0x0, symName: __ZNSt3__19allocatorINS_11__tree_nodeINS_12basic_stringIcNS_11char_traitsIcEENS0_IcEEEEPvEEE8allocateB7v160006Em, symObjAddr: 0x2510, symBinAddr: 0x100006B30, symSize: 0x50 }
  - { offsetInCU: 0x8D72, offset: 0x229FB, size: 0x8, addend: 0x0, symName: __ZNSt3__116allocator_traitsINS_9allocatorINS_11__tree_nodeINS_12basic_stringIcNS_11char_traitsIcEENS1_IcEEEEPvEEEEE8max_sizeB7v160006ISA_vEEmRKSA_, symObjAddr: 0x2560, symBinAddr: 0x100006B80, symSize: 0x20 }
  - { offsetInCU: 0x8DA0, offset: 0x22A29, size: 0x8, addend: 0x0, symName: __ZNKSt3__19allocatorINS_11__tree_nodeINS_12basic_stringIcNS_11char_traitsIcEENS0_IcEEEEPvEEE8max_sizeB7v160006Ev, symObjAddr: 0x25E0, symBinAddr: 0x100006BA0, symSize: 0x20 }
  - { offsetInCU: 0x8DC4, offset: 0x22A4D, size: 0x8, addend: 0x0, symName: __ZNSt3__122__tree_node_destructorINS_9allocatorINS_11__tree_nodeINS_12basic_stringIcNS_11char_traitsIcEENS1_IcEEEEPvEEEEEC2B7v160006ERSA_b, symObjAddr: 0x2620, symBinAddr: 0x100006BC0, symSize: 0x30 }
  - { offsetInCU: 0x8E0A, offset: 0x22A93, size: 0x8, addend: 0x0, symName: __ZNSt3__110unique_ptrINS_11__tree_nodeINS_12basic_stringIcNS_11char_traitsIcEENS_9allocatorIcEEEEPvEENS_22__tree_node_destructorINS5_IS9_EEEEEC2B7v160006ILb1EvEEPS9_NS_16__dependent_typeINS_27__unique_ptr_deleter_sfinaeISC_EEXT_EE20__good_rval_ref_typeE, symObjAddr: 0x2650, symBinAddr: 0x100006BF0, symSize: 0x40 }
  - { offsetInCU: 0x8E59, offset: 0x22AE2, size: 0x8, addend: 0x0, symName: __ZNSt3__117__compressed_pairIPNS_11__tree_nodeINS_12basic_stringIcNS_11char_traitsIcEENS_9allocatorIcEEEEPvEENS_22__tree_node_destructorINS5_IS9_EEEEEC1B7v160006IRSA_SD_EEOT_OT0_, symObjAddr: 0x2690, symBinAddr: 0x100006C30, symSize: 0x30 }
  - { offsetInCU: 0x8EAF, offset: 0x22B38, size: 0x8, addend: 0x0, symName: __ZNSt3__117__compressed_pairIPNS_11__tree_nodeINS_12basic_stringIcNS_11char_traitsIcEENS_9allocatorIcEEEEPvEENS_22__tree_node_destructorINS5_IS9_EEEEEC2B7v160006IRSA_SD_EEOT_OT0_, symObjAddr: 0x26C0, symBinAddr: 0x100006C60, symSize: 0x40 }
  - { offsetInCU: 0x8F05, offset: 0x22B8E, size: 0x8, addend: 0x0, symName: __ZNSt3__122__compressed_pair_elemIPNS_11__tree_nodeINS_12basic_stringIcNS_11char_traitsIcEENS_9allocatorIcEEEEPvEELi0ELb0EEC2B7v160006IRSA_vEEOT_, symObjAddr: 0x2700, symBinAddr: 0x100006CA0, symSize: 0x20 }
  - { offsetInCU: 0x8F45, offset: 0x22BCE, size: 0x8, addend: 0x0, symName: __ZNSt3__122__compressed_pair_elemINS_22__tree_node_destructorINS_9allocatorINS_11__tree_nodeINS_12basic_stringIcNS_11char_traitsIcEENS2_IcEEEEPvEEEEEELi1ELb0EEC2B7v160006ISC_vEEOT_, symObjAddr: 0x2720, symBinAddr: 0x100006CC0, symSize: 0x30 }
  - { offsetInCU: 0x8F85, offset: 0x22C0E, size: 0x8, addend: 0x0, symName: __ZNSt3__19allocatorINS_11__tree_nodeINS_12basic_stringIcNS_11char_traitsIcEENS0_IcEEEEPvEEE9constructB7v160006IS6_JRKS6_EEEvPT_DpOT0_, symObjAddr: 0x2750, symBinAddr: 0x100006CF0, symSize: 0x30 }
  - { offsetInCU: 0x8FD9, offset: 0x22C62, size: 0x8, addend: 0x0, symName: __ZNKSt3__117__compressed_pairIPNS_11__tree_nodeINS_12basic_stringIcNS_11char_traitsIcEENS_9allocatorIcEEEEPvEENS_22__tree_node_destructorINS5_IS9_EEEEE5firstB7v160006Ev, symObjAddr: 0x2780, symBinAddr: 0x100006D20, symSize: 0x20 }
  - { offsetInCU: 0x8FFD, offset: 0x22C86, size: 0x8, addend: 0x0, symName: __ZNKSt3__122__compressed_pair_elemIPNS_11__tree_nodeINS_12basic_stringIcNS_11char_traitsIcEENS_9allocatorIcEEEEPvEELi0ELb0EE5__getB7v160006Ev, symObjAddr: 0x27A0, symBinAddr: 0x100006D40, symSize: 0x10 }
  - { offsetInCU: 0x9021, offset: 0x22CAA, size: 0x8, addend: 0x0, symName: __ZNSt3__117__compressed_pairIPNS_11__tree_nodeINS_12basic_stringIcNS_11char_traitsIcEENS_9allocatorIcEEEEPvEENS_22__tree_node_destructorINS5_IS9_EEEEE6secondB7v160006Ev, symObjAddr: 0x27B0, symBinAddr: 0x100006D50, symSize: 0x20 }
  - { offsetInCU: 0x9045, offset: 0x22CCE, size: 0x8, addend: 0x0, symName: __ZNSt3__122__compressed_pair_elemINS_22__tree_node_destructorINS_9allocatorINS_11__tree_nodeINS_12basic_stringIcNS_11char_traitsIcEENS2_IcEEEEPvEEEEEELi1ELb0EE5__getB7v160006Ev, symObjAddr: 0x27D0, symBinAddr: 0x100006D70, symSize: 0x10 }
  - { offsetInCU: 0x9069, offset: 0x22CF2, size: 0x8, addend: 0x0, symName: __ZNSt3__16__treeINS_12basic_stringIcNS_11char_traitsIcEENS_9allocatorIcEEEENS_4lessIS6_EENS4_IS6_EEE4sizeB7v160006Ev, symObjAddr: 0x2B00, symBinAddr: 0x1000070A0, symSize: 0x20 }
  - { offsetInCU: 0x908D, offset: 0x22D16, size: 0x8, addend: 0x0, symName: __ZNSt3__116__tree_node_baseIPvE12__set_parentB7v160006EPS2_, symObjAddr: 0x2D00, symBinAddr: 0x100007250, symSize: 0x20 }
  - { offsetInCU: 0x90C0, offset: 0x22D49, size: 0x8, addend: 0x0, symName: __ZNSt3__117__compressed_pairImNS_4lessINS_12basic_stringIcNS_11char_traitsIcEENS_9allocatorIcEEEEEEE5firstB7v160006Ev, symObjAddr: 0x2D20, symBinAddr: 0x100007270, symSize: 0x20 }
  - { offsetInCU: 0x90E4, offset: 0x22D6D, size: 0x8, addend: 0x0, symName: __ZNSt3__122__compressed_pair_elemImLi0ELb0EE5__getB7v160006Ev, symObjAddr: 0x2D40, symBinAddr: 0x100007290, symSize: 0x10 }
  - { offsetInCU: 0x9108, offset: 0x22D91, size: 0x8, addend: 0x0, symName: __ZNSt3__117__compressed_pairIPNS_11__tree_nodeINS_12basic_stringIcNS_11char_traitsIcEENS_9allocatorIcEEEEPvEENS_22__tree_node_destructorINS5_IS9_EEEEE5firstB7v160006Ev, symObjAddr: 0x2D50, symBinAddr: 0x1000072A0, symSize: 0x20 }
  - { offsetInCU: 0x912C, offset: 0x22DB5, size: 0x8, addend: 0x0, symName: __ZNSt3__122__compressed_pair_elemIPNS_11__tree_nodeINS_12basic_stringIcNS_11char_traitsIcEENS_9allocatorIcEEEEPvEELi0ELb0EE5__getB7v160006Ev, symObjAddr: 0x2D70, symBinAddr: 0x1000072C0, symSize: 0x10 }
  - { offsetInCU: 0x9150, offset: 0x22DD9, size: 0x8, addend: 0x0, symName: __ZNSt3__110unique_ptrINS_11__tree_nodeINS_12basic_stringIcNS_11char_traitsIcEENS_9allocatorIcEEEEPvEENS_22__tree_node_destructorINS5_IS9_EEEEED2B7v160006Ev, symObjAddr: 0x2D80, symBinAddr: 0x1000072D0, symSize: 0x20 }
  - { offsetInCU: 0x9178, offset: 0x22E01, size: 0x8, addend: 0x0, symName: __ZNSt3__110unique_ptrINS_11__tree_nodeINS_12basic_stringIcNS_11char_traitsIcEENS_9allocatorIcEEEEPvEENS_22__tree_node_destructorINS5_IS9_EEEEE5resetB7v160006EPS9_, symObjAddr: 0x2DA0, symBinAddr: 0x1000072F0, symSize: 0x70 }
  - { offsetInCU: 0x91BA, offset: 0x22E43, size: 0x8, addend: 0x0, symName: __ZNSt3__122__tree_node_destructorINS_9allocatorINS_11__tree_nodeINS_12basic_stringIcNS_11char_traitsIcEENS1_IcEEEEPvEEEEEclB7v160006EPS9_, symObjAddr: 0x2E10, symBinAddr: 0x100007360, symSize: 0x70 }
  - { offsetInCU: 0x91ED, offset: 0x22E76, size: 0x8, addend: 0x0, symName: __ZNSt3__115__tree_iteratorINS_12basic_stringIcNS_11char_traitsIcEENS_9allocatorIcEEEEPNS_11__tree_nodeIS6_PvEElEC2B7v160006ESA_, symObjAddr: 0x2E80, symBinAddr: 0x1000073D0, symSize: 0x20 }
  - { offsetInCU: 0x9224, offset: 0x22EAD, size: 0x8, addend: 0x0, symName: __ZNSt3__14pairINS_15__tree_iteratorINS_12basic_stringIcNS_11char_traitsIcEENS_9allocatorIcEEEEPNS_11__tree_nodeIS7_PvEElEEbEC2B7v160006ISC_RbLS9_0EEEOT_OT0_, symObjAddr: 0x2EA0, symBinAddr: 0x1000073F0, symSize: 0x30 }
  - { offsetInCU: 0x9281, offset: 0x22F0A, size: 0x8, addend: 0x0, symName: __ZNSt3__14pairINS_21__tree_const_iteratorINS_12basic_stringIcNS_11char_traitsIcEENS_9allocatorIcEEEEPNS_11__tree_nodeIS7_PvEElEEbEC2B7v160006INS_15__tree_iteratorIS7_SB_lEEbLS9_0EEEONS0_IT_T0_EE, symObjAddr: 0x2ED0, symBinAddr: 0x100007420, symSize: 0x50 }
  - { offsetInCU: 0x92D1, offset: 0x22F5A, size: 0x8, addend: 0x0, symName: __ZNSt3__125pointer_to_unary_functionIiiEC1B7v160006EPFiiE, symObjAddr: 0x2FB0, symBinAddr: 0x100007480, symSize: 0x30 }
  - { offsetInCU: 0x9307, offset: 0x22F90, size: 0x8, addend: 0x0, symName: __ZNSt3__125pointer_to_unary_functionIiiEC2B7v160006EPFiiE, symObjAddr: 0x2FE0, symBinAddr: 0x1000074B0, symSize: 0x20 }
  - { offsetInCU: 0x933D, offset: 0x22FC6, size: 0x8, addend: 0x0, symName: __ZNSt3__112unary_negateINS_25pointer_to_unary_functionIiiEEEC1B7v160006ERKS2_, symObjAddr: 0x3000, symBinAddr: 0x1000074D0, symSize: 0x30 }
  - { offsetInCU: 0x9373, offset: 0x22FFC, size: 0x8, addend: 0x0, symName: __ZNSt3__112unary_negateINS_25pointer_to_unary_functionIiiEEEC2B7v160006ERKS2_, symObjAddr: 0x3030, symBinAddr: 0x100007500, symSize: 0x20 }
  - { offsetInCU: 0x93A9, offset: 0x23032, size: 0x8, addend: 0x0, symName: __ZNKSt3__112unary_negateINS_25pointer_to_unary_functionIiiEEEclB7v160006ERKi, symObjAddr: 0x3050, symBinAddr: 0x100007520, symSize: 0x40 }
  - { offsetInCU: 0x93DB, offset: 0x23064, size: 0x8, addend: 0x0, symName: __ZNKSt3__125pointer_to_unary_functionIiiEclB7v160006Ei, symObjAddr: 0x3090, symBinAddr: 0x100007560, symSize: 0x30 }
  - { offsetInCU: 0x940D, offset: 0x23096, size: 0x8, addend: 0x0, symName: __ZNKSt3__111__wrap_iterIPcEplB7v160006El, symObjAddr: 0x3140, symBinAddr: 0x100007610, symSize: 0x40 }
  - { offsetInCU: 0x944D, offset: 0x230D6, size: 0x8, addend: 0x0, symName: __ZNKSt3__111__wrap_iterIPKcE4baseB7v160006Ev, symObjAddr: 0x3180, symBinAddr: 0x100007650, symSize: 0x20 }
  - { offsetInCU: 0x9471, offset: 0x230FA, size: 0x8, addend: 0x0, symName: __ZNSt3__111__wrap_iterIPcEpLB7v160006El, symObjAddr: 0x31A0, symBinAddr: 0x100007670, symSize: 0x20 }
  - { offsetInCU: 0x94A3, offset: 0x2312C, size: 0x8, addend: 0x0, symName: __ZNSt3__111__wrap_iterIPKcEC2B7v160006IPcEERKNS0_IT_EEPNS_9enable_ifIXsr14is_convertibleIS6_S2_EE5valueEvE4typeE, symObjAddr: 0x31C0, symBinAddr: 0x100007690, symSize: 0x40 }
  - { offsetInCU: 0x94ED, offset: 0x23176, size: 0x8, addend: 0x0, symName: __ZNSt3__116reverse_iteratorINS_11__wrap_iterIPcEEEC1B7v160006ES3_, symObjAddr: 0x3200, symBinAddr: 0x1000076D0, symSize: 0x30 }
  - { offsetInCU: 0x9523, offset: 0x231AC, size: 0x8, addend: 0x0, symName: __ZNSt3__116reverse_iteratorINS_11__wrap_iterIPcEEEC2B7v160006ES3_, symObjAddr: 0x3230, symBinAddr: 0x100007700, symSize: 0x30 }
  - { offsetInCU: 0x9559, offset: 0x231E2, size: 0x8, addend: 0x0, symName: __ZNKSt3__116reverse_iteratorINS_11__wrap_iterIPcEEEdeB7v160006Ev, symObjAddr: 0x32B0, symBinAddr: 0x100007780, symSize: 0x30 }
  - { offsetInCU: 0x958B, offset: 0x23214, size: 0x8, addend: 0x0, symName: __ZNSt3__116reverse_iteratorINS_11__wrap_iterIPcEEEppB7v160006Ev, symObjAddr: 0x32E0, symBinAddr: 0x1000077B0, symSize: 0x30 }
  - { offsetInCU: 0x95AF, offset: 0x23238, size: 0x8, addend: 0x0, symName: __ZNSt3__111__wrap_iterIPcEmmB7v160006Ev, symObjAddr: 0x3310, symBinAddr: 0x1000077E0, symSize: 0x18 }
...
